Archive member included because of file (symbol)

/cygdrive/c/TWESDK/Wks_ToCoNet/CardReader/../../Wks_libToCoNet/libToCoNet/lib/libToCoNet_JN5164.a(ToCoNet_main.o)
                              objs_JN5164/CardReader.o (_ToCoNet_vDebugInit)
/cygdrive/c/TWESDK/Wks_ToCoNet/CardReader/../../Wks_libToCoNet/libToCoNet/lib/libToCoNet_JN5164.a(ToCoNet_utils.o)
                              /cygdrive/c/TWESDK/Wks_ToCoNet/CardReader/../../Wks_libToCoNet/libToCoNet/lib/libToCoNet_JN5164.a(ToCoNet_main.o) (_ToCoNet_u32GetVersion)
/cygdrive/c/TWESDK/Wks_ToCoNet/CardReader/../../Wks_libToCoNet/libToCoNet/lib/libToCoNet_JN5164.a(ToCoNet_mod_Tx.o)
                              objs_JN5164/CardReader.o (_ToCoNet_vReg_mod_Tx_Standard)
/cygdrive/c/TWESDK/Wks_ToCoNet/CardReader/../../Wks_libToCoNet/libToCoNet/lib/libToCoNet_JN5164.a(ToCoNet_mod_TxRxQueue.o)
                              objs_JN5164/CardReader.o (_ToCoNet_vReg_mod_TxRxQueueMid)
/cygdrive/c/TWESDK/Wks_ToCoNet/CardReader/../../Wks_libToCoNet/libToCoNet/lib/libToCoNet_JN5164.a(ToCoNet_mod_Nwk_Common.o)
                              /cygdrive/c/TWESDK/Wks_ToCoNet/CardReader/../../Wks_libToCoNet/libToCoNet/lib/libToCoNet_JN5164.a(ToCoNet_main.o) (_ToCoNet_vRxProc_App)
/cygdrive/c/TWESDK/Wks_ToCoNet/CardReader/../../Wks_libToCoNet/libToCoNet/lib/libToCoNet_JN5164.a(ToCoNet_mod_Channel_Mgr.o)
                              /cygdrive/c/TWESDK/Wks_ToCoNet/CardReader/../../Wks_libToCoNet/libToCoNet/lib/libToCoNet_JN5164.a(ToCoNet_main.o) (_ToCoNet_ChMgr_bCh_Reconfig)
/cygdrive/c/TWESDK/Wks_ToCoNet/CardReader/../../Wks_libToCoNet/libToCoNet/lib/libToCoNet_JN5164.a(Version.o)
                              /cygdrive/c/TWESDK/Wks_ToCoNet/CardReader/../../Wks_libToCoNet/libToCoNet/lib/libToCoNet_JN5164.a(ToCoNet_utils.o) (_au8ToCoNetVersionInfo)
/cygdrive/c/TWESDK/Wks_ToCoNet/CardReader/../../Wks_libToCoNet/libToCoNet/lib/libToCoNet_JN5164.a(AppQueueApi_ToCoNet.o)
                              /cygdrive/c/TWESDK/Wks_ToCoNet/CardReader/../../Wks_libToCoNet/libToCoNet/lib/libToCoNet_JN5164.a(ToCoNet_main.o) (_psAppQApiReadHwIndT)
/cygdrive/c/TWESDK/Wks_ToCoNet/CardReader/../../Wks_libToCoNet/libToCoNet/lib/libToCoNet_JN5164.a(ToCoNet_event.o)
                              /cygdrive/c/TWESDK/Wks_ToCoNet/CardReader/../../Wks_libToCoNet/libToCoNet/lib/libToCoNet_JN5164.a(ToCoNet_main.o) (_PRSEV_u8Register)
/cygdrive/c/TWESDK/Wks_ToCoNet/CardReader/../../Wks_libToCoNet/libToCoNet/lib/libToCoNetExt_JN5164.a(AppStart.o)
                              /cygdrive/c/TWESDK/Wks_ToCoNet/CardReader/../../Wks_libToCoNet/libToCoNet/lib/libToCoNet_JN5164.a(ToCoNet_mod_Channel_Mgr.o) (__ToCoNet_bRfChChannel)
/cygdrive/c/TWESDK/Wks_ToCoNet/CardReader/../../Wks_libToCoNet/libToCoNet/lib/libToCoNetExt_JN5164.a(getMacAddr.o)
                              /cygdrive/c/TWESDK/Wks_ToCoNet/CardReader/../../Wks_libToCoNet/libToCoNet/lib/libToCoNet_JN5164.a(ToCoNet_main.o) (_ToCoNet_u32GetSerialOnBoot)
/cygdrive/c/TWESDK/Wks_ToCoNet/CardReader/../../Wks_libToCoNet/libToCoNet/lib/libToCoNetExt_JN5164.a(mac.o)
                              /cygdrive/c/TWESDK/Wks_ToCoNet/CardReader/../../Wks_libToCoNet/libToCoNet/lib/libToCoNet_JN5164.a(ToCoNet_main.o) (_Mac_bRxQueueReg)
/cygdrive/c/TWESDK/Wks_ToCoNet/CardReader/../../Wks_libToCoNet/libToCoNet/lib/libToCoNetExt_JN5164.a(AES_CCM.o)
                              /cygdrive/c/TWESDK/Wks_ToCoNet/CardReader/../../Wks_libToCoNet/libToCoNet/lib/libToCoNetExt_JN5164.a(mac.o) (_bAES_CCM_Encode)
/cygdrive/c/TWESDK/Wks_ToCoNet/CardReader/../../Wks_libToCoNet/libToCoNet/lib/libToCoNetExt_JN5164.a(no_ack_handler.o)
                              /cygdrive/c/TWESDK/Wks_ToCoNet/CardReader/../../Wks_libToCoNet/libToCoNet/lib/libToCoNetExt_JN5164.a(AppStart.o) (_vInstallNoAckHandler)
/cygdrive/c/TWESDK/Wks_ToCoNet/CardReader/../../Wks_libToCoNet/libToCoNet/lib/libToCoNetExt_JN5164.a(Version.o)
                              /cygdrive/c/TWESDK/Wks_ToCoNet/CardReader/../../Wks_libToCoNet/libToCoNet/lib/libToCoNet_JN5164.a(ToCoNet_utils.o) (_au8ToCoNetExtVersionInfo)
/cygdrive/c/TWESDK/Wks_ToCoNet/CardReader/../../Wks_libToCoNet/libToCoNet/lib/libToCoNetExt_JN5164.a(AHI_FlashIndexSector.o)
                              /cygdrive/c/TWESDK/Wks_ToCoNet/CardReader/../../Wks_libToCoNet/libToCoNet/lib/libToCoNetExt_JN5164.a(AppStart.o) (_bAHI_ReadUserData)
/cygdrive/c/TWESDK/Wks_ToCoNet/CardReader/../../Wks_libToCoNet/libToCoNet/lib/libToCoNetUtils_JN5164.a(serial.o)
                              objs_JN5164/CardReader.o (_SERIAL_bRxQueueEmpty)
/cygdrive/c/TWESDK/Wks_ToCoNet/CardReader/../../Wks_libToCoNet/libToCoNet/lib/libToCoNetUtils_JN5164.a(uart.o)
                              /cygdrive/c/TWESDK/Wks_ToCoNet/CardReader/../../Wks_libToCoNet/libToCoNet/lib/libToCoNetUtils_JN5164.a(serial.o) (_UART_vSetTxInterrupt)
/cygdrive/c/TWESDK/Wks_ToCoNet/CardReader/../../Wks_libToCoNet/libToCoNet/lib/libToCoNetUtils_JN5164.a(ByteQueue.o)
                              /cygdrive/c/TWESDK/Wks_ToCoNet/CardReader/../../Wks_libToCoNet/libToCoNet/lib/libToCoNet_JN5164.a(ToCoNet_main.o) (_QUEUE__vInit)
/cygdrive/c/TWESDK/Wks_ToCoNet/CardReader/../../Wks_libToCoNet/libToCoNet/lib/libToCoNetUtils_JN5164.a(ccitt8.o)
                              /cygdrive/c/TWESDK/Wks_ToCoNet/CardReader/../../Wks_libToCoNet/libToCoNet/lib/libToCoNetExt_JN5164.a(AppStart.o) (_u8CCITT8)
/cygdrive/c/TWESDK/Wks_ToCoNet/CardReader/../../Wks_libToCoNet/libToCoNet/lib/libToCoNetUtils_JN5164.a(fprintf.o)
                              objs_JN5164/CardReader.o (_vfPrintf)
/cygdrive/c/TWESDK/Wks_ToCoNet/CardReader/../../Wks_libToCoNet/libToCoNet/lib/libToCoNetUtils_JN5164.a(sprintf.o)
                              objs_JN5164/CardReader.o (_SPRINTF_vInit128)
/cygdrive/c/TWESDK/Wks_ToCoNet/CardReader/../../Wks_libToCoNet/libToCoNet/lib/libToCoNetUtils_JN5164.a(utils.o)
                              objs_JN5164/CardReader.o (_vWait)
/cygdrive/c/TWESDK/Wks_ToCoNet/CardReader/../../Wks_libToCoNet/libToCoNet/lib/libToCoNetUtils_JN5164.a(ccm.o)
                              /cygdrive/c/TWESDK/Wks_ToCoNet/CardReader/../../Wks_libToCoNet/libToCoNet/lib/libToCoNetExt_JN5164.a(AES_CCM.o) (_ccm_decrypt_message)
/cygdrive/c/TWESDK/Wks_ToCoNet/CardReader/../../Wks_libToCoNet/libToCoNet/lib/libToCoNetUtils_JN5164.a(Version.o)
                              /cygdrive/c/TWESDK/Wks_ToCoNet/CardReader/../../Wks_libToCoNet/libToCoNet/lib/libToCoNet_JN5164.a(ToCoNet_utils.o) (_au8ToCoNetUtilsVersionInfo)
/cygdrive/c/TWESDK/Wks_ToCoNet/CardReader/../../Wks_libToCoNet/libToCoNet/lib/libToCoNetUtils_JN5164.a(aescrypt.o)
                              /cygdrive/c/TWESDK/Wks_ToCoNet/CardReader/../../Wks_libToCoNet/libToCoNet/lib/libToCoNetUtils_JN5164.a(ccm.o) (_aes_encrypt)
/cygdrive/c/TWESDK/Wks_ToCoNet/CardReader/../../Wks_libToCoNet/libToCoNet/lib/libToCoNetUtils_JN5164.a(aeskey.o)
                              /cygdrive/c/TWESDK/Wks_ToCoNet/CardReader/../../Wks_libToCoNet/libToCoNet/lib/libToCoNetUtils_JN5164.a(ccm.o) (_aes_encrypt_key)
/cygdrive/c/TWESDK/Wks_ToCoNet/CardReader/../../Wks_libToCoNet/libToCoNet/lib/libToCoNetUtils_JN5164.a(aestab.o)
                              /cygdrive/c/TWESDK/Wks_ToCoNet/CardReader/../../Wks_libToCoNet/libToCoNet/lib/libToCoNetUtils_JN5164.a(aeskey.o) (_t_rc)
/cygdrive/c/TWESDK/516x/Components/Library/libAppApi_JN516x.a(AppApi.o)
                              (_pvAppApiDefGetMacHandle)
/cygdrive/c/TWESDK/516x/Components/Library/libAppApi_JN516x.a(AppApiSleep.o)
                              (_vAppApiDefSaveMacSettings)
/cygdrive/c/TWESDK/516x/Components/Library/libMac_JN516x.a(mac_main.o)
                              /cygdrive/c/TWESDK/516x/Components/Library/libAppApi_JN516x.a(AppApi.o) (_bMAC_CurrentlyScanning)
/cygdrive/c/TWESDK/516x/Components/Library/libMac_JN516x.a(mac_mcps.o)
                              /cygdrive/c/TWESDK/516x/Components/Library/libAppApi_JN516x.a(AppApi.o) (_MAC_vHandleMcpsReqRsp)
/cygdrive/c/TWESDK/516x/Components/Library/libMac_JN516x.a(mac_mlme.o)
                              /cygdrive/c/TWESDK/516x/Components/Library/libAppApi_JN516x.a(AppApi.o) (_MAC_vHandleMlmeReqRsp)
/cygdrive/c/TWESDK/516x/Components/Library/libMac_JN516x.a(mac_pib.o)
                              /cygdrive/c/TWESDK/Wks_ToCoNet/CardReader/../../Wks_libToCoNet/libToCoNet/lib/libToCoNetExt_JN5164.a(AppStart.o) (_MAC_psPibGetHandle)
/cygdrive/c/TWESDK/516x/Components/Library/libMac_JN516x.a(mac_pib_mlme.o)
                              /cygdrive/c/TWESDK/516x/Components/Library/libMac_JN516x.a(mac_mlme.o) (_mac_vPibReset)
/cygdrive/c/TWESDK/516x/Components/Library/libMac_JN516x.a(mac_pmic.o)
                              /cygdrive/c/TWESDK/516x/Components/Library/libMac_JN516x.a(mac_main.o) (_vPMICreset)
/cygdrive/c/TWESDK/516x/Components/Library/libMac_JN516x.a(mac_ind.o)
                              /cygdrive/c/TWESDK/516x/Components/Library/libAppApi_JN516x.a(AppApi.o) (_MAC_vRegisterMlmeDcfmIndCallbacks)
/cygdrive/c/TWESDK/516x/Components/Library/libMac_JN516x.a(mac_scan.o)
                              /cygdrive/c/TWESDK/516x/Components/Library/libMac_JN516x.a(mac_main.o) (_mac_eScanHandleXcvBbcEvt)
/cygdrive/c/TWESDK/516x/Components/Library/libMac_JN516x.a(mac_lp.o)
                              /cygdrive/c/TWESDK/516x/Components/Library/libMac_JN516x.a(mac_pmic.o) (_g_sLP)
/cygdrive/c/TWESDK/516x/Components/Library/libMac_JN516x.a(MCPS.o)
                              /cygdrive/c/TWESDK/516x/Components/Library/libMac_JN516x.a(mac_mcps.o) (_vTAM_MCPSpurgeRequest)
/cygdrive/c/TWESDK/516x/Components/Library/libMac_JN516x.a(phy_pib.o)
                              /cygdrive/c/TWESDK/516x/Components/Library/libAppApi_JN516x.a(AppApi.o) (_phy_ePibGet)
/cygdrive/c/TWESDK/516x/Components/Library/libMac_JN516x.a(TAM.o)
                              /cygdrive/c/TWESDK/516x/Components/Library/libMac_JN516x.a(MCPS.o) (_bTAMinPAN)
/cygdrive/c/TWESDK/516x/Components/Library/libMac_JN516x.a(TAMCO.o)
                              /cygdrive/c/TWESDK/516x/Components/Library/libMac_JN516x.a(TAM.o) (_vTAMCOsetCoordinator)
/cygdrive/c/TWESDK/516x/Components/Library/libMac_JN516x.a(TAMDE.o)
                              /cygdrive/c/TWESDK/516x/Components/Library/libMac_JN516x.a(TAM.o) (_vTAMDEdetermineNullState)
/cygdrive/c/TWESDK/516x/Components/Library/libMac_JN516x.a(TAM_MEM.o)
                              /cygdrive/c/TWESDK/516x/Components/Library/libMac_JN516x.a(mac_scan.o) (_pvMEMget)
/cygdrive/c/TWESDK/516x/Components/Library/libMac_JN516x.a(TAM_MLME.o)
                              /cygdrive/c/TWESDK/516x/Components/Library/libMac_JN516x.a(mac_pmic.o) (_vMLMEcommStatus)
/cygdrive/c/TWESDK/516x/Components/Library/libMac_JN516x.a(TAM_TAH.o)
                              /cygdrive/c/TWESDK/516x/Components/Library/libMac_JN516x.a(TAMCO.o) (_vTAHsetCutOff)
/cygdrive/c/TWESDK/516x/Components/Library/libMac_JN516x.a(TAM_TAI.o)
                              /cygdrive/c/TWESDK/516x/Components/Library/libMac_JN516x.a(TAMCO.o) (_vTAIdisableInterrupt)
/cygdrive/c/TWESDK/516x/Components/Library/libMac_JN516x.a(TAM_TAT.o)
                              /cygdrive/c/TWESDK/516x/Components/Library/libMac_JN516x.a(TAMDE.o) (_eTATreadTXstatus)
/cygdrive/c/TWESDK/516x/Components/Library/libMac_JN516x.a(TAMcommon.o)
                              /cygdrive/c/TWESDK/516x/Components/Library/libMac_JN516x.a(mac_scan.o) (_bTACassessBeaconForPayload)
/cygdrive/c/TWESDK/516x/Components/Library/libMac_JN516x.a(TAMevent.o)
                              /cygdrive/c/TWESDK/516x/Components/Library/libMac_JN516x.a(mac_lp.o) (_vTAMinsertEvent)
/cygdrive/c/TWESDK/516x/Components/Library/libMac_JN516x.a(TAMqueue.o)
                              /cygdrive/c/TWESDK/516x/Components/Library/libMac_JN516x.a(TAMcommon.o) (_vTAQaddToFifo)
/cygdrive/c/TWESDK/516x/Components/Library/libMac_JN516x.a(TAMrxEnable.o)
                              /cygdrive/c/TWESDK/516x/Components/Library/libMac_JN516x.a(mac_mlme.o) (_vTAM_MLMErxEnableRequest)
/cygdrive/c/TWESDK/516x/Components/Library/libMac_JN516x.a(TAMsecurity.o)
                              /cygdrive/c/TWESDK/516x/Components/Library/libMac_JN516x.a(TAMcommon.o) (_u8TSCframeIncrease)
/cygdrive/c/TWESDK/516x/Components/Library/libMac_JN516x.a(TAMsideways.o)
                              /cygdrive/c/TWESDK/516x/Components/Library/libMac_JN516x.a(mac_pmic.o) (_vTAStidyUpAfterFrameTX)
/cygdrive/c/TWESDK/516x/Components/Library/libMac_JN516x.a(TAMtime.o)
                              /cygdrive/c/TWESDK/516x/Components/Library/libMac_JN516x.a(TAM.o) (_vTTIBLETimerExpired)
/cygdrive/c/TWESDK/516x/Components/Library/libMac_JN516x.a(TAM_AES.o)
                              /cygdrive/c/TWESDK/516x/Components/Library/libMac_JN516x.a(TAMsecurity.o) (_u8TAM_AES_WriteAuxilliarySecurityHeaderIntoBuffer)
/cygdrive/c/TWESDK/516x/Components/Library/libMac_JN516x.a(mac_acl.o)
                              /cygdrive/c/TWESDK/516x/Components/Library/libMac_JN516x.a(TAMsecurity.o) (_MAC_u8AclFindInfo)
/cygdrive/c/TWESDK/516x/Components/Library/libMac_JN516x.a(mac_misc.o)
                              /cygdrive/c/TWESDK/516x/Components/Library/libMac_JN516x.a(TAMcommon.o) (_vMAC_MISCorphanReceived)
/cygdrive/c/TWESDK/516x/Components/Library/libXcv_JN516x.a(xcv_main.o)
                              /cygdrive/c/TWESDK/516x/Components/Library/libAppApi_JN516x.a(AppApi.o) (_XCV_vCtor)
/cygdrive/c/TWESDK/516x/Components/Library/libXcv_JN516x.a(xcv_access.o)
                              /cygdrive/c/TWESDK/516x/Components/Library/libMac_JN516x.a(mac_main.o) (_XCV_vDevWriteIER)
/cygdrive/c/TWESDK/516x/Components/Library/libXcv_JN516x.a(xcv_isr.o)
                              /cygdrive/c/TWESDK/516x/Components/Library/libAppApi_JN516x.a(AppApi.o) (_vXCV_IntHandlerBbc)
/cygdrive/c/TWESDK/516x/Components/Library/libAes_JN516x.a(AEScoprocessorCCM.o)
                              /cygdrive/c/TWESDK/Wks_ToCoNet/CardReader/../../Wks_libToCoNet/libToCoNet/lib/libToCoNetExt_JN5164.a(AES_CCM.o) (_bACI_CCMstar)
/cygdrive/c/TWESDK/516x/Components/Library/libTimerServer_JN516x.a(tsv_main.o)
                              /cygdrive/c/TWESDK/516x/Components/Library/libMac_JN516x.a(mac_main.o) (_TSV_eInit)
/cygdrive/c/TWESDK/516x/Components/Library/libHardwareApi_JN516x.a(AHI_Analogue.o)
                              /cygdrive/c/TWESDK/Wks_ToCoNet/CardReader/../../Wks_libToCoNet/libToCoNet/lib/libToCoNetUtils_JN5164.a(utils.o) (_bAHI_APRegulatorEnabled)
/cygdrive/c/TWESDK/516x/Components/Library/libHardwareApi_JN516x.a(AHI_BrownOut.o)
                              objs_JN5164/CardReader.o (_vAHI_BrownOutConfigure)
/cygdrive/c/TWESDK/516x/Components/Library/libHardwareApi_JN516x.a(AHI_Dio.o)
                              objs_JN5164/CardReader.o (_vAHI_DioSetDirection)
/cygdrive/c/TWESDK/516x/Components/Library/libHardwareApi_JN516x.a(AHI_Init.o)
                              /cygdrive/c/TWESDK/Wks_ToCoNet/CardReader/../../Wks_libToCoNet/libToCoNet/lib/libToCoNetExt_JN5164.a(AppStart.o) (_u32AHI_Init)
/cygdrive/c/TWESDK/516x/Components/Library/libHardwareApi_JN516x.a(AHI_Interrupt.o)
                              /cygdrive/c/TWESDK/516x/Components/Library/libAppApi_JN516x.a(AppApi.o) (_vAHI_InterruptSetPriority)
/cygdrive/c/TWESDK/516x/Components/Library/libHardwareApi_JN516x.a(AHI_Reset.o)
                              /cygdrive/c/TWESDK/Wks_ToCoNet/CardReader/../../Wks_libToCoNet/libToCoNet/lib/libToCoNet_JN5164.a(ToCoNet_main.o) (_vAHI_SwReset)
/cygdrive/c/TWESDK/516x/Components/Library/libHardwareApi_JN516x.a(AHI_Si.o)
                              /cygdrive/c/TWESDK/516x/Components/Library/libHardwareApi_JN516x.a(AHI_Init.o) (_vAHI_IntHandlerSi)
/cygdrive/c/TWESDK/516x/Components/Library/libHardwareApi_JN516x.a(AHI_Spi.o)
                              /cygdrive/c/TWESDK/516x/Components/Library/libHardwareApi_JN516x.a(AHI_Init.o) (_vAHI_IntHandlerSpiMaster)
/cygdrive/c/TWESDK/516x/Components/Library/libHardwareApi_JN516x.a(AHI_System.o)
                              /cygdrive/c/TWESDK/516x/Components/Library/libAppApi_JN516x.a(AppApiSleep.o) (_u8AHI_PowerStatus)
/cygdrive/c/TWESDK/516x/Components/Library/libHardwareApi_JN516x.a(AHI_TickTimer.o)
                              /cygdrive/c/TWESDK/Wks_ToCoNet/CardReader/../../Wks_libToCoNet/libToCoNet/lib/libToCoNet_JN5164.a(AppQueueApi_ToCoNet.o) (_vAHI_TickTimerInit)
/cygdrive/c/TWESDK/516x/Components/Library/libHardwareApi_JN516x.a(AHI_Timer.o)
                              /cygdrive/c/TWESDK/Wks_ToCoNet/CardReader/../../Wks_libToCoNet/libToCoNet/lib/libToCoNetUtils_JN5164.a(utils.o) (_vAHI_TimerEnable)
/cygdrive/c/TWESDK/516x/Components/Library/libHardwareApi_JN516x.a(AHI_TimerInt.o)
                              /cygdrive/c/TWESDK/516x/Components/Library/libHardwareApi_JN516x.a(AHI_Init.o) (_vAHI_IntHandlerTimer0)
/cygdrive/c/TWESDK/516x/Components/Library/libHardwareApi_JN516x.a(AHI_Uart.o)
                              /cygdrive/c/TWESDK/Wks_ToCoNet/CardReader/../../Wks_libToCoNet/libToCoNet/lib/libToCoNetUtils_JN5164.a(uart.o) (_vAHI_UartSetBaudDivisor)
/cygdrive/c/TWESDK/516x/Components/Library/libHardwareApi_JN516x.a(AHI_WakeTimer.o)
                              /cygdrive/c/TWESDK/Wks_ToCoNet/CardReader/../../Wks_libToCoNet/libToCoNet/lib/libToCoNet_JN5164.a(ToCoNet_utils.o) (_vAHI_WakeTimerEnable)
/cygdrive/c/TWESDK/516x/Components/Library/libHardwareApi_JN516x.a(AHI_Flash.o)
                              /cygdrive/c/TWESDK/516x/Components/Library/libHardwareApi_JN516x.a(AHI_System.o) (_vAHI_FlashAndEEPROMControllerIntHandler)
/cygdrive/c/TWESDK/516x/Components/Library/libHardwareApi_JN516x.a(AHI_SpiSlave.o)
                              /cygdrive/c/TWESDK/516x/Components/Library/libHardwareApi_JN516x.a(AHI_Init.o) (_vAHI_IntHandlerSpiSlave)
/cygdrive/c/TWESDK/516x/Components/Library/libHardwareApi_JN516x.a(AHI_Infrared.o)
                              /cygdrive/c/TWESDK/516x/Components/Library/libHardwareApi_JN516x.a(AHI_TimerInt.o) (_vAHI_IntHandlerInfrared)
/cygdrive/c/TWESDK/516x/Components/Library/libHardwareApi_JN516x.a(InternalFlashApi.o)
                              /cygdrive/c/TWESDK/516x/Components/Library/libHardwareApi_JN516x.a(AHI_Flash.o) (_bFlashErase)
/cygdrive/c/TWESDK/516x/Components/Library/libMicroSpecific_JN516x.a(MicroInt.o)
                              /cygdrive/c/TWESDK/Wks_ToCoNet/CardReader/../../Wks_libToCoNet/libToCoNet/lib/libToCoNetExt_JN5164.a(AppStart.o) (_vMicroIntEnableOnly)
/cygdrive/c/TWESDK/516x/Components/Library/libBoot_JN516x.a(ExceptionHandler.o)
                              (__exception_external_interrupt)
/cygdrive/c/TWESDK/516x/Components/Library/libBoot_JN516x.a(Heap.o)
                              /cygdrive/c/TWESDK/516x/Components/Library/libMac_JN516x.a(mac_main.o) (_pvHeap_Alloc)
/cygdrive/c/TWESDK/516x/Components/Library/libMaths_JN516x.a(Maths.o)
                              /cygdrive/c/TWESDK/Wks_ToCoNet/CardReader/../../Wks_libToCoNet/libToCoNet/lib/libToCoNetUtils_JN5164.a(uart.o) (___udivsi3)
/cygdrive/c/TWESDK/516x/Components/Library/libMaths_JN516x.a(Maths_muldi3.o)
                              /cygdrive/c/TWESDK/Wks_ToCoNet/CardReader/../../Wks_libToCoNet/libToCoNet/lib/libToCoNet_JN5164.a(ToCoNet_utils.o) (___muldi3)
/cygdrive/c/TWESDK/516x/Components/Library/libMaths_JN516x.a(Maths_divdi3.o)
                              /cygdrive/c/TWESDK/Wks_ToCoNet/CardReader/../../Wks_libToCoNet/libToCoNet/lib/libToCoNet_JN5164.a(ToCoNet_utils.o) (___udivdi3)
/cygdrive/c/TWESDK/516x/Components/Library/libAppApi_JN516x.a(AppHousekeeping.o)
                              /cygdrive/c/TWESDK/516x/Components/Library/libMac_JN516x.a(mac_scan.o) (_sAppHousekeeping)
/cygdrive/c/TWESDK/516x/Components/Library/libAES_CCM_SW_PATCH_JN516x.a(aes_ccmstar.o)
                              /cygdrive/c/TWESDK/516x/Components/Library/libAes_JN516x.a(AEScoprocessorCCM.o) (_bAES_CCMstar)
/cygdrive/c/TWESDK/516x/Components/Library/libAes_JN516x.a(AEScoprocessorAPIinterrupts.o)
                              /cygdrive/c/TWESDK/516x/Components/Library/libHardwareApi_JN516x.a(AHI_Init.o) (_vACI_IntHandlerAes)
/cygdrive/c/TWESDK/516x/Components/Library/libAes_JN516x.a(AEScoprocessorECB.o)
                              /cygdrive/c/TWESDK/516x/Components/Library/libAES_CCM_SW_PATCH_JN516x.a(aes_ccmstar.o) (_bACI_ECBencodeStripe)
/cygdrive/c/TWESDK/516x/Components/Library/libAes_JN516x.a(AEScoprocessorAPI.o)
                              /cygdrive/c/TWESDK/516x/Components/Library/libAes_JN516x.a(AEScoprocessorECB.o) (_vACI_CmdWaitBusy)
/cygdrive/c/TWESDK/Tools/ba-elf-ba2/bin/../lib/gcc/ba-elf/4.1.2/../../../../ba-elf/lib/ba2/libc.a(memcmp.o)
                              objs_JN5164/CardReader.o (_memcmp)
/cygdrive/c/TWESDK/Tools/ba-elf-ba2/bin/../lib/gcc/ba-elf/4.1.2/../../../../ba-elf/lib/ba2/libc.a(memcpy.o)
                              objs_JN5164/CardReader.o (_memcpy)
/cygdrive/c/TWESDK/Tools/ba-elf-ba2/bin/../lib/gcc/ba-elf/4.1.2/../../../../ba-elf/lib/ba2/libc.a(memset.o)
                              objs_JN5164/CardReader.o (_memset)

Allocating common symbols
Common symbol       size              file

sToCoNet_AppContext
                    0x1c              /cygdrive/c/TWESDK/Wks_ToCoNet/CardReader/../../Wks_libToCoNet/libToCoNet/lib/libToCoNet_JN5164.a(ToCoNet_main.o)
au8Txdatabuff_idx_sTxQueue
                    0x4               /cygdrive/c/TWESDK/Wks_ToCoNet/CardReader/../../Wks_libToCoNet/libToCoNet/lib/libToCoNet_JN5164.a(ToCoNet_main.o)
sSerStream          0x8               objs_JN5164/CardReader.o
sTxQueue            0x1c              /cygdrive/c/TWESDK/Wks_ToCoNet/CardReader/../../Wks_libToCoNet/libToCoNet/lib/libToCoNet_JN5164.a(ToCoNet_main.o)
s_sTimerList        0x10              /cygdrive/c/TWESDK/516x/Components/Library/libTimerServer_JN516x.a(tsv_main.o)
bMAC_DiscardUnsuccessfulAssocResponses
                    0x1               /cygdrive/c/TWESDK/516x/Components/Library/libMac_JN516x.a(mac_pmic.o)
u8RxBuffSiz_sRxQueue
                    0x1               /cygdrive/c/TWESDK/Wks_ToCoNet/CardReader/../../Wks_libToCoNet/libToCoNet/lib/libToCoNet_JN5164.a(ToCoNet_main.o)
SPRINTF_Stream      0x4               /cygdrive/c/TWESDK/Wks_ToCoNet/CardReader/../../Wks_libToCoNet/libToCoNet/lib/libToCoNetUtils_JN5164.a(sprintf.o)
au8Rxdatabuff_idx_sRxQueue
                    0x4               /cygdrive/c/TWESDK/Wks_ToCoNet/CardReader/../../Wks_libToCoNet/libToCoNet/lib/libToCoNet_JN5164.a(ToCoNet_main.o)
sRCS620SData        0x20              objs_JN5164/CardReader.o
sRxQueue            0x1c              /cygdrive/c/TWESDK/Wks_ToCoNet/CardReader/../../Wks_libToCoNet/libToCoNet/lib/libToCoNet_JN5164.a(ToCoNet_main.o)
u8Msq               0x1               /cygdrive/c/TWESDK/516x/Components/Library/libMac_JN516x.a(TAM_TAT.o)
sToCoNet_Context    0x44              /cygdrive/c/TWESDK/Wks_ToCoNet/CardReader/../../Wks_libToCoNet/libToCoNet/lib/libToCoNet_JN5164.a(ToCoNet_main.o)
sToCoNet_Modules    0x58              /cygdrive/c/TWESDK/Wks_ToCoNet/CardReader/../../Wks_libToCoNet/libToCoNet/lib/libToCoNet_JN5164.a(ToCoNet_main.o)
apvHwIndBufferData  0x2c              /cygdrive/c/TWESDK/Wks_ToCoNet/CardReader/../../Wks_libToCoNet/libToCoNet/lib/libToCoNet_JN5164.a(AppQueueApi_ToCoNet.o)
g_tSpiConfiguration
                    0x4               /cygdrive/c/TWESDK/516x/Components/Library/libHardwareApi_JN516x.a(AHI_Flash.o)
g_pvMac             0x4               /cygdrive/c/TWESDK/516x/Components/Library/libAppApi_JN516x.a(AppApi.o)
sTxdatabuff_sTxQueue
                    0x4               /cygdrive/c/TWESDK/Wks_ToCoNet/CardReader/../../Wks_libToCoNet/libToCoNet/lib/libToCoNet_JN5164.a(ToCoNet_main.o)
apvMcpsIndBufferData
                    0x14              /cygdrive/c/TWESDK/Wks_ToCoNet/CardReader/../../Wks_libToCoNet/libToCoNet/lib/libToCoNet_JN5164.a(AppQueueApi_ToCoNet.o)
u8RxBuffSiz_sRxQueueCmd
                    0x1               /cygdrive/c/TWESDK/Wks_ToCoNet/CardReader/../../Wks_libToCoNet/libToCoNet/lib/libToCoNet_JN5164.a(ToCoNet_main.o)
sRxdatabuff_sRxQueue
                    0x4               /cygdrive/c/TWESDK/Wks_ToCoNet/CardReader/../../Wks_libToCoNet/libToCoNet/lib/libToCoNet_JN5164.a(ToCoNet_main.o)
_MAC_u8TxFailReason
                    0x1               /cygdrive/c/TWESDK/Wks_ToCoNet/CardReader/../../Wks_libToCoNet/libToCoNet/lib/libToCoNetExt_JN5164.a(mac.o)
sAppHousekeeping    0x18              /cygdrive/c/TWESDK/516x/Components/Library/libAppApi_JN516x.a(AppHousekeeping.o)
prMAC_TofRxHandler  0x4               /cygdrive/c/TWESDK/516x/Components/Library/libMac_JN516x.a(TAMcommon.o)
u8TxBuffSiz_sTxQueue
                    0x1               /cygdrive/c/TWESDK/Wks_ToCoNet/CardReader/../../Wks_libToCoNet/libToCoNet/lib/libToCoNet_JN5164.a(ToCoNet_main.o)
g_sXcv              0x4               /cygdrive/c/TWESDK/516x/Components/Library/libAppApi_JN516x.a(AppApi.o)
prMAC_TofMlmeReqHandler
                    0x4               /cygdrive/c/TWESDK/516x/Components/Library/libMac_JN516x.a(mac_mlme.o)
au8Rxdatabuff_idx_sRxQueueCmd
                    0x4               /cygdrive/c/TWESDK/Wks_ToCoNet/CardReader/../../Wks_libToCoNet/libToCoNet/lib/libToCoNet_JN5164.a(ToCoNet_main.o)
sSerPort            0x18              objs_JN5164/CardReader.o
bAHI_ExtendedTemperatureOperation
                    0x1               /cygdrive/c/TWESDK/516x/Components/Library/libHardwareApi_JN516x.a(AHI_System.o)
g_sLP               0x40              /cygdrive/c/TWESDK/516x/Components/Library/libMac_JN516x.a(mac_lp.o)
apvMlmeIndBufferData
                    0x14              /cygdrive/c/TWESDK/Wks_ToCoNet/CardReader/../../Wks_libToCoNet/libToCoNet/lib/libToCoNet_JN5164.a(AppQueueApi_ToCoNet.o)
u8TAM_TxStatusOverride
                    0x1               /cygdrive/c/TWESDK/516x/Components/Library/libMac_JN516x.a(TAMevent.o)
sEvVars             0x1c              /cygdrive/c/TWESDK/Wks_ToCoNet/CardReader/../../Wks_libToCoNet/libToCoNet/lib/libToCoNet_JN5164.a(ToCoNet_event.o)
prTickTimeAppCallback
                    0x4               /cygdrive/c/TWESDK/516x/Components/Library/libHardwareApi_JN516x.a(AHI_TickTimer.o)
asSerialPorts       0x38              /cygdrive/c/TWESDK/Wks_ToCoNet/CardReader/../../Wks_libToCoNet/libToCoNet/lib/libToCoNetUtils_JN5164.a(serial.o)
sRxdatabuff_sRxQueueCmd
                    0x4               /cygdrive/c/TWESDK/Wks_ToCoNet/CardReader/../../Wks_libToCoNet/libToCoNet/lib/libToCoNet_JN5164.a(ToCoNet_main.o)

Discarded input sections

 .text          0x00000000        0x0 objs_JN5164/CardReader.o
 .data          0x00000000        0x0 objs_JN5164/CardReader.o
 .bss           0x00000000        0x0 objs_JN5164/CardReader.o
 .text.rcsCardDataExchange
                0x00000000        0x0 objs_JN5164/CardReader.o
 .text.rcsCardCommand
                0x00000000        0x0 objs_JN5164/CardReader.o
 .text.rcsPush  0x00000000        0x0 objs_JN5164/CardReader.o
 .text.rcsPollingTypeA
                0x00000000        0x0 objs_JN5164/CardReader.o
 .text          0x00000000        0x0 /cygdrive/c/TWESDK/Wks_ToCoNet/CardReader/../../Wks_libToCoNet/libToCoNet/lib/libToCoNet_JN5164.a(ToCoNet_main.o)
 .data          0x00000000        0x0 /cygdrive/c/TWESDK/Wks_ToCoNet/CardReader/../../Wks_libToCoNet/libToCoNet/lib/libToCoNet_JN5164.a(ToCoNet_main.o)
 .bss           0x00000000        0x0 /cygdrive/c/TWESDK/Wks_ToCoNet/CardReader/../../Wks_libToCoNet/libToCoNet/lib/libToCoNet_JN5164.a(ToCoNet_main.o)
 .text.ToCoNet_bRegisterAesKey
                0x00000000        0x0 /cygdrive/c/TWESDK/Wks_ToCoNet/CardReader/../../Wks_libToCoNet/libToCoNet/lib/libToCoNet_JN5164.a(ToCoNet_main.o)
 .text.ToCoNet_bMacTxReq
                0x00000000        0x0 /cygdrive/c/TWESDK/Wks_ToCoNet/CardReader/../../Wks_libToCoNet/libToCoNet/lib/libToCoNet_JN5164.a(ToCoNet_main.o)
 .text.ToCoNet_vRfConfig
                0x00000000        0x0 /cygdrive/c/TWESDK/Wks_ToCoNet/CardReader/../../Wks_libToCoNet/libToCoNet/lib/libToCoNet_JN5164.a(ToCoNet_main.o)
 .text.ToCoNet_vChConfig
                0x00000000        0x0 /cygdrive/c/TWESDK/Wks_ToCoNet/CardReader/../../Wks_libToCoNet/libToCoNet/lib/libToCoNet_JN5164.a(ToCoNet_main.o)
 .text.ToCoNet_bMacStarted
                0x00000000        0x0 /cygdrive/c/TWESDK/Wks_ToCoNet/CardReader/../../Wks_libToCoNet/libToCoNet/lib/libToCoNet_JN5164.a(ToCoNet_main.o)
 .text          0x00000000        0x0 /cygdrive/c/TWESDK/Wks_ToCoNet/CardReader/../../Wks_libToCoNet/libToCoNet/lib/libToCoNet_JN5164.a(ToCoNet_utils.o)
 .data          0x00000000        0x0 /cygdrive/c/TWESDK/Wks_ToCoNet/CardReader/../../Wks_libToCoNet/libToCoNet/lib/libToCoNet_JN5164.a(ToCoNet_utils.o)
 .bss           0x00000000        0x0 /cygdrive/c/TWESDK/Wks_ToCoNet/CardReader/../../Wks_libToCoNet/libToCoNet/lib/libToCoNet_JN5164.a(ToCoNet_utils.o)
 .text.ToCoNet_u32GetVersion_LibEx
                0x00000000        0x0 /cygdrive/c/TWESDK/Wks_ToCoNet/CardReader/../../Wks_libToCoNet/libToCoNet/lib/libToCoNet_JN5164.a(ToCoNet_utils.o)
 .text.ToCoNet_u32GetVersion_LibUtils
                0x00000000        0x0 /cygdrive/c/TWESDK/Wks_ToCoNet/CardReader/../../Wks_libToCoNet/libToCoNet/lib/libToCoNet_JN5164.a(ToCoNet_utils.o)
 .text.ToCoNet_u16GetPanId
                0x00000000        0x0 /cygdrive/c/TWESDK/Wks_ToCoNet/CardReader/../../Wks_libToCoNet/libToCoNet/lib/libToCoNet_JN5164.a(ToCoNet_utils.o)
 .text.ToCoNet_u32GetSerial
                0x00000000        0x0 /cygdrive/c/TWESDK/Wks_ToCoNet/CardReader/../../Wks_libToCoNet/libToCoNet/lib/libToCoNet_JN5164.a(ToCoNet_utils.o)
 .text.ToCoNet_bIsStrong
                0x00000000        0x0 /cygdrive/c/TWESDK/Wks_ToCoNet/CardReader/../../Wks_libToCoNet/libToCoNet/lib/libToCoNet_JN5164.a(ToCoNet_utils.o)
 .text.ToCoNet_u16RcCalib
                0x00000000        0x0 /cygdrive/c/TWESDK/Wks_ToCoNet/CardReader/../../Wks_libToCoNet/libToCoNet/lib/libToCoNet_JN5164.a(ToCoNet_utils.o)
 .text.ToCoNet_vSleep
                0x00000000        0x0 /cygdrive/c/TWESDK/Wks_ToCoNet/CardReader/../../Wks_libToCoNet/libToCoNet/lib/libToCoNet_JN5164.a(ToCoNet_utils.o)
 .text          0x00000000        0x0 /cygdrive/c/TWESDK/Wks_ToCoNet/CardReader/../../Wks_libToCoNet/libToCoNet/lib/libToCoNet_JN5164.a(ToCoNet_mod_Tx.o)
 .data          0x00000000        0x0 /cygdrive/c/TWESDK/Wks_ToCoNet/CardReader/../../Wks_libToCoNet/libToCoNet/lib/libToCoNet_JN5164.a(ToCoNet_mod_Tx.o)
 .bss           0x00000000        0x0 /cygdrive/c/TWESDK/Wks_ToCoNet/CardReader/../../Wks_libToCoNet/libToCoNet/lib/libToCoNet_JN5164.a(ToCoNet_mod_Tx.o)
 .text.ToCoNet_Tx_vProcessQueue
                0x00000000        0x0 /cygdrive/c/TWESDK/Wks_ToCoNet/CardReader/../../Wks_libToCoNet/libToCoNet/lib/libToCoNet_JN5164.a(ToCoNet_mod_Tx.o)
 .text          0x00000000        0x0 /cygdrive/c/TWESDK/Wks_ToCoNet/CardReader/../../Wks_libToCoNet/libToCoNet/lib/libToCoNet_JN5164.a(ToCoNet_mod_TxRxQueue.o)
 .data          0x00000000        0x0 /cygdrive/c/TWESDK/Wks_ToCoNet/CardReader/../../Wks_libToCoNet/libToCoNet/lib/libToCoNet_JN5164.a(ToCoNet_mod_TxRxQueue.o)
 .bss           0x00000000        0x0 /cygdrive/c/TWESDK/Wks_ToCoNet/CardReader/../../Wks_libToCoNet/libToCoNet/lib/libToCoNet_JN5164.a(ToCoNet_mod_TxRxQueue.o)
 .text.ToCoNet_vReg_mod_TxRxQueueSmall
                0x00000000        0x0 /cygdrive/c/TWESDK/Wks_ToCoNet/CardReader/../../Wks_libToCoNet/libToCoNet/lib/libToCoNet_JN5164.a(ToCoNet_mod_TxRxQueue.o)
 .text.ToCoNet_vReg_mod_TxRxQueueBig
                0x00000000        0x0 /cygdrive/c/TWESDK/Wks_ToCoNet/CardReader/../../Wks_libToCoNet/libToCoNet/lib/libToCoNet_JN5164.a(ToCoNet_mod_TxRxQueue.o)
 .bss.TxWorker_asTxData.3555
                0x00000000        0x0 /cygdrive/c/TWESDK/Wks_ToCoNet/CardReader/../../Wks_libToCoNet/libToCoNet/lib/libToCoNet_JN5164.a(ToCoNet_mod_TxRxQueue.o)
 .bss.au8Rxdatabuff_idx_sRxQueueCmdSmall.3553
                0x00000000        0x0 /cygdrive/c/TWESDK/Wks_ToCoNet/CardReader/../../Wks_libToCoNet/libToCoNet/lib/libToCoNet_JN5164.a(ToCoNet_mod_TxRxQueue.o)
 .bss.sRxdatabuff_sRxQueueCmdSmall.3552
                0x00000000        0x0 /cygdrive/c/TWESDK/Wks_ToCoNet/CardReader/../../Wks_libToCoNet/libToCoNet/lib/libToCoNet_JN5164.a(ToCoNet_mod_TxRxQueue.o)
 .bss.au8Rxdatabuff_idx_sRxQueueSmall.3550
                0x00000000        0x0 /cygdrive/c/TWESDK/Wks_ToCoNet/CardReader/../../Wks_libToCoNet/libToCoNet/lib/libToCoNet_JN5164.a(ToCoNet_mod_TxRxQueue.o)
 .bss.sRxdatabuff_sRxQueueSmall.3549
                0x00000000        0x0 /cygdrive/c/TWESDK/Wks_ToCoNet/CardReader/../../Wks_libToCoNet/libToCoNet/lib/libToCoNet_JN5164.a(ToCoNet_mod_TxRxQueue.o)
 .bss.au8Txdatabuff_idx_sTxQueueSmall.3547
                0x00000000        0x0 /cygdrive/c/TWESDK/Wks_ToCoNet/CardReader/../../Wks_libToCoNet/libToCoNet/lib/libToCoNet_JN5164.a(ToCoNet_mod_TxRxQueue.o)
 .bss.sTxdatabuff_sTxQueueSmall.3546
                0x00000000        0x0 /cygdrive/c/TWESDK/Wks_ToCoNet/CardReader/../../Wks_libToCoNet/libToCoNet/lib/libToCoNet_JN5164.a(ToCoNet_mod_TxRxQueue.o)
 .bss.TxWorker_asTxData.3529
                0x00000000        0x0 /cygdrive/c/TWESDK/Wks_ToCoNet/CardReader/../../Wks_libToCoNet/libToCoNet/lib/libToCoNet_JN5164.a(ToCoNet_mod_TxRxQueue.o)
 .bss.au8Rxdatabuff_idx_sRxQueueCmdBig.3527
                0x00000000        0x0 /cygdrive/c/TWESDK/Wks_ToCoNet/CardReader/../../Wks_libToCoNet/libToCoNet/lib/libToCoNet_JN5164.a(ToCoNet_mod_TxRxQueue.o)
 .bss.sRxdatabuff_sRxQueueCmdBig.3526
                0x00000000        0x0 /cygdrive/c/TWESDK/Wks_ToCoNet/CardReader/../../Wks_libToCoNet/libToCoNet/lib/libToCoNet_JN5164.a(ToCoNet_mod_TxRxQueue.o)
 .bss.au8Rxdatabuff_idx_sRxQueueBig.3524
                0x00000000        0x0 /cygdrive/c/TWESDK/Wks_ToCoNet/CardReader/../../Wks_libToCoNet/libToCoNet/lib/libToCoNet_JN5164.a(ToCoNet_mod_TxRxQueue.o)
 .bss.sRxdatabuff_sRxQueueBig.3523
                0x00000000        0x0 /cygdrive/c/TWESDK/Wks_ToCoNet/CardReader/../../Wks_libToCoNet/libToCoNet/lib/libToCoNet_JN5164.a(ToCoNet_mod_TxRxQueue.o)
 .bss.au8Txdatabuff_idx_sTxQueueBig.3521
                0x00000000        0x0 /cygdrive/c/TWESDK/Wks_ToCoNet/CardReader/../../Wks_libToCoNet/libToCoNet/lib/libToCoNet_JN5164.a(ToCoNet_mod_TxRxQueue.o)
 .bss.sTxdatabuff_sTxQueueBig.3520
                0x00000000        0x0 /cygdrive/c/TWESDK/Wks_ToCoNet/CardReader/../../Wks_libToCoNet/libToCoNet/lib/libToCoNet_JN5164.a(ToCoNet_mod_TxRxQueue.o)
 .text          0x00000000        0x0 /cygdrive/c/TWESDK/Wks_ToCoNet/CardReader/../../Wks_libToCoNet/libToCoNet/lib/libToCoNet_JN5164.a(ToCoNet_mod_Nwk_Common.o)
 .data          0x00000000        0x0 /cygdrive/c/TWESDK/Wks_ToCoNet/CardReader/../../Wks_libToCoNet/libToCoNet/lib/libToCoNet_JN5164.a(ToCoNet_mod_Nwk_Common.o)
 .bss           0x00000000        0x0 /cygdrive/c/TWESDK/Wks_ToCoNet/CardReader/../../Wks_libToCoNet/libToCoNet/lib/libToCoNet_JN5164.a(ToCoNet_mod_Nwk_Common.o)
 .text          0x00000000        0x0 /cygdrive/c/TWESDK/Wks_ToCoNet/CardReader/../../Wks_libToCoNet/libToCoNet/lib/libToCoNet_JN5164.a(ToCoNet_mod_Channel_Mgr.o)
 .data          0x00000000        0x0 /cygdrive/c/TWESDK/Wks_ToCoNet/CardReader/../../Wks_libToCoNet/libToCoNet/lib/libToCoNet_JN5164.a(ToCoNet_mod_Channel_Mgr.o)
 .bss           0x00000000        0x0 /cygdrive/c/TWESDK/Wks_ToCoNet/CardReader/../../Wks_libToCoNet/libToCoNet/lib/libToCoNet_JN5164.a(ToCoNet_mod_Channel_Mgr.o)
 .text.ToCoNet_ChMgr_vCh_Release
                0x00000000        0x0 /cygdrive/c/TWESDK/Wks_ToCoNet/CardReader/../../Wks_libToCoNet/libToCoNet/lib/libToCoNet_JN5164.a(ToCoNet_mod_Channel_Mgr.o)
 .text.ToCoNet_ChMgr_bCh_Hold
                0x00000000        0x0 /cygdrive/c/TWESDK/Wks_ToCoNet/CardReader/../../Wks_libToCoNet/libToCoNet/lib/libToCoNet_JN5164.a(ToCoNet_mod_Channel_Mgr.o)
 .text.ToCoNet_ChMgr_bCh_Change
                0x00000000        0x0 /cygdrive/c/TWESDK/Wks_ToCoNet/CardReader/../../Wks_libToCoNet/libToCoNet/lib/libToCoNet_JN5164.a(ToCoNet_mod_Channel_Mgr.o)
 .text.ToCoNet_ChMgr_psConfig
                0x00000000        0x0 /cygdrive/c/TWESDK/Wks_ToCoNet/CardReader/../../Wks_libToCoNet/libToCoNet/lib/libToCoNet_JN5164.a(ToCoNet_mod_Channel_Mgr.o)
 .text.ToCoNet_vReg_mod_Channel_Mgr
                0x00000000        0x0 /cygdrive/c/TWESDK/Wks_ToCoNet/CardReader/../../Wks_libToCoNet/libToCoNet/lib/libToCoNet_JN5164.a(ToCoNet_mod_Channel_Mgr.o)
 .text.vProcessEvCoreChannelMgr
                0x00000000        0x0 /cygdrive/c/TWESDK/Wks_ToCoNet/CardReader/../../Wks_libToCoNet/libToCoNet/lib/libToCoNet_JN5164.a(ToCoNet_mod_Channel_Mgr.o)
 .text.vUpdateChList
                0x00000000        0x0 /cygdrive/c/TWESDK/Wks_ToCoNet/CardReader/../../Wks_libToCoNet/libToCoNet/lib/libToCoNet_JN5164.a(ToCoNet_mod_Channel_Mgr.o)
 .text.vHnd_E_STATE_RUNNING
                0x00000000        0x0 /cygdrive/c/TWESDK/Wks_ToCoNet/CardReader/../../Wks_libToCoNet/libToCoNet/lib/libToCoNet_JN5164.a(ToCoNet_mod_Channel_Mgr.o)
 .text.vHnd_E_STATE_IDLE
                0x00000000        0x0 /cygdrive/c/TWESDK/Wks_ToCoNet/CardReader/../../Wks_libToCoNet/libToCoNet/lib/libToCoNet_JN5164.a(ToCoNet_mod_Channel_Mgr.o)
 .rodata.asStateFuncTbl.4371
                0x00000000        0x0 /cygdrive/c/TWESDK/Wks_ToCoNet/CardReader/../../Wks_libToCoNet/libToCoNet/lib/libToCoNet_JN5164.a(ToCoNet_mod_Channel_Mgr.o)
 .bss.sContext  0x00000000        0x0 /cygdrive/c/TWESDK/Wks_ToCoNet/CardReader/../../Wks_libToCoNet/libToCoNet/lib/libToCoNet_JN5164.a(ToCoNet_mod_Channel_Mgr.o)
 .text          0x00000000        0x0 /cygdrive/c/TWESDK/Wks_ToCoNet/CardReader/../../Wks_libToCoNet/libToCoNet/lib/libToCoNet_JN5164.a(Version.o)
 .data          0x00000000        0x0 /cygdrive/c/TWESDK/Wks_ToCoNet/CardReader/../../Wks_libToCoNet/libToCoNet/lib/libToCoNet_JN5164.a(Version.o)
 .bss           0x00000000        0x0 /cygdrive/c/TWESDK/Wks_ToCoNet/CardReader/../../Wks_libToCoNet/libToCoNet/lib/libToCoNet_JN5164.a(Version.o)
 .text          0x00000000        0x0 /cygdrive/c/TWESDK/Wks_ToCoNet/CardReader/../../Wks_libToCoNet/libToCoNet/lib/libToCoNet_JN5164.a(AppQueueApi_ToCoNet.o)
 .data          0x00000000        0x0 /cygdrive/c/TWESDK/Wks_ToCoNet/CardReader/../../Wks_libToCoNet/libToCoNet/lib/libToCoNet_JN5164.a(AppQueueApi_ToCoNet.o)
 .bss           0x00000000        0x0 /cygdrive/c/TWESDK/Wks_ToCoNet/CardReader/../../Wks_libToCoNet/libToCoNet/lib/libToCoNet_JN5164.a(AppQueueApi_ToCoNet.o)
 .text          0x00000000        0x0 /cygdrive/c/TWESDK/Wks_ToCoNet/CardReader/../../Wks_libToCoNet/libToCoNet/lib/libToCoNet_JN5164.a(ToCoNet_event.o)
 .data          0x00000000        0x0 /cygdrive/c/TWESDK/Wks_ToCoNet/CardReader/../../Wks_libToCoNet/libToCoNet/lib/libToCoNet_JN5164.a(ToCoNet_event.o)
 .bss           0x00000000        0x0 /cygdrive/c/TWESDK/Wks_ToCoNet/CardReader/../../Wks_libToCoNet/libToCoNet/lib/libToCoNet_JN5164.a(ToCoNet_event.o)
 .text.PRSEV_bUnregister
                0x00000000        0x0 /cygdrive/c/TWESDK/Wks_ToCoNet/CardReader/../../Wks_libToCoNet/libToCoNet/lib/libToCoNet_JN5164.a(ToCoNet_event.o)
 .text.PRSEV_peGetContext
                0x00000000        0x0 /cygdrive/c/TWESDK/Wks_ToCoNet/CardReader/../../Wks_libToCoNet/libToCoNet/lib/libToCoNet_JN5164.a(ToCoNet_event.o)
 .text.PRSEV_peGetContextH
                0x00000000        0x0 /cygdrive/c/TWESDK/Wks_ToCoNet/CardReader/../../Wks_libToCoNet/libToCoNet/lib/libToCoNet_JN5164.a(ToCoNet_event.o)
 .text.PRSEV_bPostEvent
                0x00000000        0x0 /cygdrive/c/TWESDK/Wks_ToCoNet/CardReader/../../Wks_libToCoNet/libToCoNet/lib/libToCoNet_JN5164.a(ToCoNet_event.o)
 .text.PRSEV_eGetState
                0x00000000        0x0 /cygdrive/c/TWESDK/Wks_ToCoNet/CardReader/../../Wks_libToCoNet/libToCoNet/lib/libToCoNet_JN5164.a(ToCoNet_event.o)
 .text.PRSEV_eGetStateH
                0x00000000        0x0 /cygdrive/c/TWESDK/Wks_ToCoNet/CardReader/../../Wks_libToCoNet/libToCoNet/lib/libToCoNet_JN5164.a(ToCoNet_event.o)
 .text          0x00000000        0x0 /cygdrive/c/TWESDK/Wks_ToCoNet/CardReader/../../Wks_libToCoNet/libToCoNet/lib/libToCoNetExt_JN5164.a(AppStart.o)
 .data          0x00000000        0x0 /cygdrive/c/TWESDK/Wks_ToCoNet/CardReader/../../Wks_libToCoNet/libToCoNet/lib/libToCoNetExt_JN5164.a(AppStart.o)
 .bss           0x00000000        0x0 /cygdrive/c/TWESDK/Wks_ToCoNet/CardReader/../../Wks_libToCoNet/libToCoNet/lib/libToCoNetExt_JN5164.a(AppStart.o)
 .text          0x00000000        0x0 /cygdrive/c/TWESDK/Wks_ToCoNet/CardReader/../../Wks_libToCoNet/libToCoNet/lib/libToCoNetExt_JN5164.a(getMacAddr.o)
 .data          0x00000000        0x0 /cygdrive/c/TWESDK/Wks_ToCoNet/CardReader/../../Wks_libToCoNet/libToCoNet/lib/libToCoNetExt_JN5164.a(getMacAddr.o)
 .bss           0x00000000        0x0 /cygdrive/c/TWESDK/Wks_ToCoNet/CardReader/../../Wks_libToCoNet/libToCoNet/lib/libToCoNetExt_JN5164.a(getMacAddr.o)
 .text          0x00000000        0x0 /cygdrive/c/TWESDK/Wks_ToCoNet/CardReader/../../Wks_libToCoNet/libToCoNet/lib/libToCoNetExt_JN5164.a(mac.o)
 .data          0x00000000        0x0 /cygdrive/c/TWESDK/Wks_ToCoNet/CardReader/../../Wks_libToCoNet/libToCoNet/lib/libToCoNetExt_JN5164.a(mac.o)
 .bss           0x00000000        0x0 /cygdrive/c/TWESDK/Wks_ToCoNet/CardReader/../../Wks_libToCoNet/libToCoNet/lib/libToCoNetExt_JN5164.a(mac.o)
 .text.u32TocosMacToLongAddr
                0x00000000        0x0 /cygdrive/c/TWESDK/Wks_ToCoNet/CardReader/../../Wks_libToCoNet/libToCoNet/lib/libToCoNetExt_JN5164.a(mac.o)
 .text.vLongToTocosMacAddr
                0x00000000        0x0 /cygdrive/c/TWESDK/Wks_ToCoNet/CardReader/../../Wks_libToCoNet/libToCoNet/lib/libToCoNetExt_JN5164.a(mac.o)
 .text.Mac_vSetNwkPktDecrypt
                0x00000000        0x0 /cygdrive/c/TWESDK/Wks_ToCoNet/CardReader/../../Wks_libToCoNet/libToCoNet/lib/libToCoNetExt_JN5164.a(mac.o)
 .text.cbMac_vHandleMcpsDataInd
                0x00000000        0x0 /cygdrive/c/TWESDK/Wks_ToCoNet/CardReader/../../Wks_libToCoNet/libToCoNet/lib/libToCoNetExt_JN5164.a(mac.o)
 .text.Mac_bSecureInit
                0x00000000        0x0 /cygdrive/c/TWESDK/Wks_ToCoNet/CardReader/../../Wks_libToCoNet/libToCoNet/lib/libToCoNetExt_JN5164.a(mac.o)
 .bss.pf_bIsPacketDecript
                0x00000000        0x0 /cygdrive/c/TWESDK/Wks_ToCoNet/CardReader/../../Wks_libToCoNet/libToCoNet/lib/libToCoNetExt_JN5164.a(mac.o)
 .text          0x00000000        0x0 /cygdrive/c/TWESDK/Wks_ToCoNet/CardReader/../../Wks_libToCoNet/libToCoNet/lib/libToCoNetExt_JN5164.a(AES_CCM.o)
 .data          0x00000000        0x0 /cygdrive/c/TWESDK/Wks_ToCoNet/CardReader/../../Wks_libToCoNet/libToCoNet/lib/libToCoNetExt_JN5164.a(AES_CCM.o)
 .bss           0x00000000        0x0 /cygdrive/c/TWESDK/Wks_ToCoNet/CardReader/../../Wks_libToCoNet/libToCoNet/lib/libToCoNetExt_JN5164.a(AES_CCM.o)
 .text.bAES_CCM_KeyReg_Brian
                0x00000000        0x0 /cygdrive/c/TWESDK/Wks_ToCoNet/CardReader/../../Wks_libToCoNet/libToCoNet/lib/libToCoNetExt_JN5164.a(AES_CCM.o)
 .text.bAES_CCM_Decode_Brian
                0x00000000        0x0 /cygdrive/c/TWESDK/Wks_ToCoNet/CardReader/../../Wks_libToCoNet/libToCoNet/lib/libToCoNetExt_JN5164.a(AES_CCM.o)
 .text.bAES_CCM_Encode_Brian
                0x00000000        0x0 /cygdrive/c/TWESDK/Wks_ToCoNet/CardReader/../../Wks_libToCoNet/libToCoNet/lib/libToCoNetExt_JN5164.a(AES_CCM.o)
 .bss.sCCM.3478
                0x00000000        0x0 /cygdrive/c/TWESDK/Wks_ToCoNet/CardReader/../../Wks_libToCoNet/libToCoNet/lib/libToCoNetExt_JN5164.a(AES_CCM.o)
 .text          0x00000000        0x0 /cygdrive/c/TWESDK/Wks_ToCoNet/CardReader/../../Wks_libToCoNet/libToCoNet/lib/libToCoNetExt_JN5164.a(no_ack_handler.o)
 .data          0x00000000        0x0 /cygdrive/c/TWESDK/Wks_ToCoNet/CardReader/../../Wks_libToCoNet/libToCoNet/lib/libToCoNetExt_JN5164.a(no_ack_handler.o)
 .bss           0x00000000        0x0 /cygdrive/c/TWESDK/Wks_ToCoNet/CardReader/../../Wks_libToCoNet/libToCoNet/lib/libToCoNetExt_JN5164.a(no_ack_handler.o)
 .text          0x00000000        0x0 /cygdrive/c/TWESDK/Wks_ToCoNet/CardReader/../../Wks_libToCoNet/libToCoNet/lib/libToCoNetExt_JN5164.a(Version.o)
 .data          0x00000000        0x0 /cygdrive/c/TWESDK/Wks_ToCoNet/CardReader/../../Wks_libToCoNet/libToCoNet/lib/libToCoNetExt_JN5164.a(Version.o)
 .bss           0x00000000        0x0 /cygdrive/c/TWESDK/Wks_ToCoNet/CardReader/../../Wks_libToCoNet/libToCoNet/lib/libToCoNetExt_JN5164.a(Version.o)
 .rodata.au8ToCoNetExtVersionInfo
                0x00000000        0x0 /cygdrive/c/TWESDK/Wks_ToCoNet/CardReader/../../Wks_libToCoNet/libToCoNet/lib/libToCoNetExt_JN5164.a(Version.o)
 .text          0x00000000        0x0 /cygdrive/c/TWESDK/Wks_ToCoNet/CardReader/../../Wks_libToCoNet/libToCoNet/lib/libToCoNetExt_JN5164.a(AHI_FlashIndexSector.o)
 .data          0x00000000        0x0 /cygdrive/c/TWESDK/Wks_ToCoNet/CardReader/../../Wks_libToCoNet/libToCoNet/lib/libToCoNetExt_JN5164.a(AHI_FlashIndexSector.o)
 .bss           0x00000000        0x0 /cygdrive/c/TWESDK/Wks_ToCoNet/CardReader/../../Wks_libToCoNet/libToCoNet/lib/libToCoNetExt_JN5164.a(AHI_FlashIndexSector.o)
 .text.bAHI_ReadCustomerAESkey
                0x00000000        0x0 /cygdrive/c/TWESDK/Wks_ToCoNet/CardReader/../../Wks_libToCoNet/libToCoNet/lib/libToCoNetExt_JN5164.a(AHI_FlashIndexSector.o)
 .text.bAHI_BlankCheckIndexSectorPage
                0x00000000        0x0 /cygdrive/c/TWESDK/Wks_ToCoNet/CardReader/../../Wks_libToCoNet/libToCoNet/lib/libToCoNetExt_JN5164.a(AHI_FlashIndexSector.o)
 .text.bAHI_WriteCustomerSettings
                0x00000000        0x0 /cygdrive/c/TWESDK/Wks_ToCoNet/CardReader/../../Wks_libToCoNet/libToCoNet/lib/libToCoNetExt_JN5164.a(AHI_FlashIndexSector.o)
 .text.bAHI_WriteUserData
                0x00000000        0x0 /cygdrive/c/TWESDK/Wks_ToCoNet/CardReader/../../Wks_libToCoNet/libToCoNet/lib/libToCoNetExt_JN5164.a(AHI_FlashIndexSector.o)
 .text.bAHI_WriteCustomerAESkey
                0x00000000        0x0 /cygdrive/c/TWESDK/Wks_ToCoNet/CardReader/../../Wks_libToCoNet/libToCoNet/lib/libToCoNetExt_JN5164.a(AHI_FlashIndexSector.o)
 .text.bAHI_WriteCustomerMACID
                0x00000000        0x0 /cygdrive/c/TWESDK/Wks_ToCoNet/CardReader/../../Wks_libToCoNet/libToCoNet/lib/libToCoNetExt_JN5164.a(AHI_FlashIndexSector.o)
 .text          0x00000000        0x0 /cygdrive/c/TWESDK/Wks_ToCoNet/CardReader/../../Wks_libToCoNet/libToCoNet/lib/libToCoNetUtils_JN5164.a(serial.o)
 .data          0x00000000        0x0 /cygdrive/c/TWESDK/Wks_ToCoNet/CardReader/../../Wks_libToCoNet/libToCoNet/lib/libToCoNetUtils_JN5164.a(serial.o)
 .bss           0x00000000        0x0 /cygdrive/c/TWESDK/Wks_ToCoNet/CardReader/../../Wks_libToCoNet/libToCoNet/lib/libToCoNetUtils_JN5164.a(serial.o)
 .text.SERIAL_u32RxString
                0x00000000        0x0 /cygdrive/c/TWESDK/Wks_ToCoNet/CardReader/../../Wks_libToCoNet/libToCoNet/lib/libToCoNetUtils_JN5164.a(serial.o)
 .text.SERIAL_bTxString
                0x00000000        0x0 /cygdrive/c/TWESDK/Wks_ToCoNet/CardReader/../../Wks_libToCoNet/libToCoNet/lib/libToCoNetUtils_JN5164.a(serial.o)
 .text.SERIAL_vInit
                0x00000000        0x0 /cygdrive/c/TWESDK/Wks_ToCoNet/CardReader/../../Wks_libToCoNet/libToCoNet/lib/libToCoNetUtils_JN5164.a(serial.o)
 .text          0x00000000        0x0 /cygdrive/c/TWESDK/Wks_ToCoNet/CardReader/../../Wks_libToCoNet/libToCoNet/lib/libToCoNetUtils_JN5164.a(uart.o)
 .data          0x00000000        0x0 /cygdrive/c/TWESDK/Wks_ToCoNet/CardReader/../../Wks_libToCoNet/libToCoNet/lib/libToCoNetUtils_JN5164.a(uart.o)
 .bss           0x00000000        0x0 /cygdrive/c/TWESDK/Wks_ToCoNet/CardReader/../../Wks_libToCoNet/libToCoNet/lib/libToCoNetUtils_JN5164.a(uart.o)
 .text          0x00000000        0x0 /cygdrive/c/TWESDK/Wks_ToCoNet/CardReader/../../Wks_libToCoNet/libToCoNet/lib/libToCoNetUtils_JN5164.a(ByteQueue.o)
 .data          0x00000000        0x0 /cygdrive/c/TWESDK/Wks_ToCoNet/CardReader/../../Wks_libToCoNet/libToCoNet/lib/libToCoNetUtils_JN5164.a(ByteQueue.o)
 .bss           0x00000000        0x0 /cygdrive/c/TWESDK/Wks_ToCoNet/CardReader/../../Wks_libToCoNet/libToCoNet/lib/libToCoNetUtils_JN5164.a(ByteQueue.o)
 .text          0x00000000        0x0 /cygdrive/c/TWESDK/Wks_ToCoNet/CardReader/../../Wks_libToCoNet/libToCoNet/lib/libToCoNetUtils_JN5164.a(ccitt8.o)
 .data          0x00000000        0x0 /cygdrive/c/TWESDK/Wks_ToCoNet/CardReader/../../Wks_libToCoNet/libToCoNet/lib/libToCoNetUtils_JN5164.a(ccitt8.o)
 .bss           0x00000000        0x0 /cygdrive/c/TWESDK/Wks_ToCoNet/CardReader/../../Wks_libToCoNet/libToCoNet/lib/libToCoNetUtils_JN5164.a(ccitt8.o)
 .text          0x00000000        0x0 /cygdrive/c/TWESDK/Wks_ToCoNet/CardReader/../../Wks_libToCoNet/libToCoNet/lib/libToCoNetUtils_JN5164.a(fprintf.o)
 .data          0x00000000        0x0 /cygdrive/c/TWESDK/Wks_ToCoNet/CardReader/../../Wks_libToCoNet/libToCoNet/lib/libToCoNetUtils_JN5164.a(fprintf.o)
 .bss           0x00000000        0x0 /cygdrive/c/TWESDK/Wks_ToCoNet/CardReader/../../Wks_libToCoNet/libToCoNet/lib/libToCoNetUtils_JN5164.a(fprintf.o)
 .text          0x00000000        0x0 /cygdrive/c/TWESDK/Wks_ToCoNet/CardReader/../../Wks_libToCoNet/libToCoNet/lib/libToCoNetUtils_JN5164.a(sprintf.o)
 .data          0x00000000        0x0 /cygdrive/c/TWESDK/Wks_ToCoNet/CardReader/../../Wks_libToCoNet/libToCoNet/lib/libToCoNetUtils_JN5164.a(sprintf.o)
 .bss           0x00000000        0x0 /cygdrive/c/TWESDK/Wks_ToCoNet/CardReader/../../Wks_libToCoNet/libToCoNet/lib/libToCoNetUtils_JN5164.a(sprintf.o)
 .text.SPRINTF_vInit32
                0x00000000        0x0 /cygdrive/c/TWESDK/Wks_ToCoNet/CardReader/../../Wks_libToCoNet/libToCoNet/lib/libToCoNetUtils_JN5164.a(sprintf.o)
 .text.SPRINTF_vInit64
                0x00000000        0x0 /cygdrive/c/TWESDK/Wks_ToCoNet/CardReader/../../Wks_libToCoNet/libToCoNet/lib/libToCoNetUtils_JN5164.a(sprintf.o)
 .text.SPRINTF_vInit256
                0x00000000        0x0 /cygdrive/c/TWESDK/Wks_ToCoNet/CardReader/../../Wks_libToCoNet/libToCoNet/lib/libToCoNetUtils_JN5164.a(sprintf.o)
 .text.SPRINTF_vInit512
                0x00000000        0x0 /cygdrive/c/TWESDK/Wks_ToCoNet/CardReader/../../Wks_libToCoNet/libToCoNet/lib/libToCoNetUtils_JN5164.a(sprintf.o)
 .text.SPRINTF_vInit1024
                0x00000000        0x0 /cygdrive/c/TWESDK/Wks_ToCoNet/CardReader/../../Wks_libToCoNet/libToCoNet/lib/libToCoNetUtils_JN5164.a(sprintf.o)
 .text.SPRINTF_vRewind
                0x00000000        0x0 /cygdrive/c/TWESDK/Wks_ToCoNet/CardReader/../../Wks_libToCoNet/libToCoNet/lib/libToCoNetUtils_JN5164.a(sprintf.o)
 .text.SPRINTF_pu8GetBuff
                0x00000000        0x0 /cygdrive/c/TWESDK/Wks_ToCoNet/CardReader/../../Wks_libToCoNet/libToCoNet/lib/libToCoNetUtils_JN5164.a(sprintf.o)
 .text.SPRINTF_u16Length
                0x00000000        0x0 /cygdrive/c/TWESDK/Wks_ToCoNet/CardReader/../../Wks_libToCoNet/libToCoNet/lib/libToCoNetUtils_JN5164.a(sprintf.o)
 .text.u32string2hex
                0x00000000        0x0 /cygdrive/c/TWESDK/Wks_ToCoNet/CardReader/../../Wks_libToCoNet/libToCoNet/lib/libToCoNetUtils_JN5164.a(sprintf.o)
 .text.u32string2dec
                0x00000000        0x0 /cygdrive/c/TWESDK/Wks_ToCoNet/CardReader/../../Wks_libToCoNet/libToCoNet/lib/libToCoNetUtils_JN5164.a(sprintf.o)
 .bss.au8buff.1924
                0x00000000        0x0 /cygdrive/c/TWESDK/Wks_ToCoNet/CardReader/../../Wks_libToCoNet/libToCoNet/lib/libToCoNetUtils_JN5164.a(sprintf.o)
 .bss.au8buff.1921
                0x00000000        0x0 /cygdrive/c/TWESDK/Wks_ToCoNet/CardReader/../../Wks_libToCoNet/libToCoNet/lib/libToCoNetUtils_JN5164.a(sprintf.o)
 .bss.au8buff.1918
                0x00000000        0x0 /cygdrive/c/TWESDK/Wks_ToCoNet/CardReader/../../Wks_libToCoNet/libToCoNet/lib/libToCoNetUtils_JN5164.a(sprintf.o)
 .bss.au8buff.1912
                0x00000000        0x0 /cygdrive/c/TWESDK/Wks_ToCoNet/CardReader/../../Wks_libToCoNet/libToCoNet/lib/libToCoNetUtils_JN5164.a(sprintf.o)
 .bss.au8buff.1909
                0x00000000        0x0 /cygdrive/c/TWESDK/Wks_ToCoNet/CardReader/../../Wks_libToCoNet/libToCoNet/lib/libToCoNetUtils_JN5164.a(sprintf.o)
 .text          0x00000000        0x0 /cygdrive/c/TWESDK/Wks_ToCoNet/CardReader/../../Wks_libToCoNet/libToCoNet/lib/libToCoNetUtils_JN5164.a(utils.o)
 .data          0x00000000        0x0 /cygdrive/c/TWESDK/Wks_ToCoNet/CardReader/../../Wks_libToCoNet/libToCoNet/lib/libToCoNetUtils_JN5164.a(utils.o)
 .bss           0x00000000        0x0 /cygdrive/c/TWESDK/Wks_ToCoNet/CardReader/../../Wks_libToCoNet/libToCoNet/lib/libToCoNetUtils_JN5164.a(utils.o)
 .text.vTimerChangeHzCore
                0x00000000        0x0 /cygdrive/c/TWESDK/Wks_ToCoNet/CardReader/../../Wks_libToCoNet/libToCoNet/lib/libToCoNetUtils_JN5164.a(utils.o)
 .text.vTimerChangeHz
                0x00000000        0x0 /cygdrive/c/TWESDK/Wks_ToCoNet/CardReader/../../Wks_libToCoNet/libToCoNet/lib/libToCoNetUtils_JN5164.a(utils.o)
 .text.vTimerChangeHzEx
                0x00000000        0x0 /cygdrive/c/TWESDK/Wks_ToCoNet/CardReader/../../Wks_libToCoNet/libToCoNet/lib/libToCoNetUtils_JN5164.a(utils.o)
 .text.vTimerChangeDutyCore
                0x00000000        0x0 /cygdrive/c/TWESDK/Wks_ToCoNet/CardReader/../../Wks_libToCoNet/libToCoNet/lib/libToCoNetUtils_JN5164.a(utils.o)
 .text.vTimerChangeDuty
                0x00000000        0x0 /cygdrive/c/TWESDK/Wks_ToCoNet/CardReader/../../Wks_libToCoNet/libToCoNet/lib/libToCoNetUtils_JN5164.a(utils.o)
 .text.vTimerChangeDutySync
                0x00000000        0x0 /cygdrive/c/TWESDK/Wks_ToCoNet/CardReader/../../Wks_libToCoNet/libToCoNet/lib/libToCoNetUtils_JN5164.a(utils.o)
 .text.vAnalogueDisable
                0x00000000        0x0 /cygdrive/c/TWESDK/Wks_ToCoNet/CardReader/../../Wks_libToCoNet/libToCoNet/lib/libToCoNetUtils_JN5164.a(utils.o)
 .text.vAnalogueConfig
                0x00000000        0x0 /cygdrive/c/TWESDK/Wks_ToCoNet/CardReader/../../Wks_libToCoNet/libToCoNet/lib/libToCoNetUtils_JN5164.a(utils.o)
 .text.vTimerDisable
                0x00000000        0x0 /cygdrive/c/TWESDK/Wks_ToCoNet/CardReader/../../Wks_libToCoNet/libToCoNet/lib/libToCoNetUtils_JN5164.a(utils.o)
 .text.vTimerStop
                0x00000000        0x0 /cygdrive/c/TWESDK/Wks_ToCoNet/CardReader/../../Wks_libToCoNet/libToCoNet/lib/libToCoNetUtils_JN5164.a(utils.o)
 .text          0x00000000        0x0 /cygdrive/c/TWESDK/Wks_ToCoNet/CardReader/../../Wks_libToCoNet/libToCoNet/lib/libToCoNetUtils_JN5164.a(ccm.o)
 .data          0x00000000        0x0 /cygdrive/c/TWESDK/Wks_ToCoNet/CardReader/../../Wks_libToCoNet/libToCoNet/lib/libToCoNetUtils_JN5164.a(ccm.o)
 .bss           0x00000000        0x0 /cygdrive/c/TWESDK/Wks_ToCoNet/CardReader/../../Wks_libToCoNet/libToCoNet/lib/libToCoNetUtils_JN5164.a(ccm.o)
 .text.xor_block
                0x00000000        0x0 /cygdrive/c/TWESDK/Wks_ToCoNet/CardReader/../../Wks_libToCoNet/libToCoNet/lib/libToCoNetUtils_JN5164.a(ccm.o)
 .text.xor_block_aligned
                0x00000000        0x0 /cygdrive/c/TWESDK/Wks_ToCoNet/CardReader/../../Wks_libToCoNet/libToCoNet/lib/libToCoNetUtils_JN5164.a(ccm.o)
 .text.ccm_end  0x00000000        0x0 /cygdrive/c/TWESDK/Wks_ToCoNet/CardReader/../../Wks_libToCoNet/libToCoNet/lib/libToCoNetUtils_JN5164.a(ccm.o)
 .text.ccm_crypt_data
                0x00000000        0x0 /cygdrive/c/TWESDK/Wks_ToCoNet/CardReader/../../Wks_libToCoNet/libToCoNet/lib/libToCoNetUtils_JN5164.a(ccm.o)
 .text.ccm_auth_data
                0x00000000        0x0 /cygdrive/c/TWESDK/Wks_ToCoNet/CardReader/../../Wks_libToCoNet/libToCoNet/lib/libToCoNetUtils_JN5164.a(ccm.o)
 .text.ccm_decrypt
                0x00000000        0x0 /cygdrive/c/TWESDK/Wks_ToCoNet/CardReader/../../Wks_libToCoNet/libToCoNet/lib/libToCoNetUtils_JN5164.a(ccm.o)
 .text.ccm_encrypt
                0x00000000        0x0 /cygdrive/c/TWESDK/Wks_ToCoNet/CardReader/../../Wks_libToCoNet/libToCoNet/lib/libToCoNetUtils_JN5164.a(ccm.o)
 .text.ccm_auth_header
                0x00000000        0x0 /cygdrive/c/TWESDK/Wks_ToCoNet/CardReader/../../Wks_libToCoNet/libToCoNet/lib/libToCoNetUtils_JN5164.a(ccm.o)
 .text.ccm_compute_tag
                0x00000000        0x0 /cygdrive/c/TWESDK/Wks_ToCoNet/CardReader/../../Wks_libToCoNet/libToCoNet/lib/libToCoNetUtils_JN5164.a(ccm.o)
 .text.ccm_init_message
                0x00000000        0x0 /cygdrive/c/TWESDK/Wks_ToCoNet/CardReader/../../Wks_libToCoNet/libToCoNet/lib/libToCoNetUtils_JN5164.a(ccm.o)
 .text.ccm_decrypt_message
                0x00000000        0x0 /cygdrive/c/TWESDK/Wks_ToCoNet/CardReader/../../Wks_libToCoNet/libToCoNet/lib/libToCoNetUtils_JN5164.a(ccm.o)
 .text.ccm_encrypt_message
                0x00000000        0x0 /cygdrive/c/TWESDK/Wks_ToCoNet/CardReader/../../Wks_libToCoNet/libToCoNet/lib/libToCoNetUtils_JN5164.a(ccm.o)
 .text.ccm_init_and_key
                0x00000000        0x0 /cygdrive/c/TWESDK/Wks_ToCoNet/CardReader/../../Wks_libToCoNet/libToCoNet/lib/libToCoNetUtils_JN5164.a(ccm.o)
 .text          0x00000000        0x0 /cygdrive/c/TWESDK/Wks_ToCoNet/CardReader/../../Wks_libToCoNet/libToCoNet/lib/libToCoNetUtils_JN5164.a(Version.o)
 .data          0x00000000        0x0 /cygdrive/c/TWESDK/Wks_ToCoNet/CardReader/../../Wks_libToCoNet/libToCoNet/lib/libToCoNetUtils_JN5164.a(Version.o)
 .bss           0x00000000        0x0 /cygdrive/c/TWESDK/Wks_ToCoNet/CardReader/../../Wks_libToCoNet/libToCoNet/lib/libToCoNetUtils_JN5164.a(Version.o)
 .rodata.au8ToCoNetUtilsVersionInfo
                0x00000000        0x0 /cygdrive/c/TWESDK/Wks_ToCoNet/CardReader/../../Wks_libToCoNet/libToCoNet/lib/libToCoNetUtils_JN5164.a(Version.o)
 .text          0x00000000        0x0 /cygdrive/c/TWESDK/Wks_ToCoNet/CardReader/../../Wks_libToCoNet/libToCoNet/lib/libToCoNetUtils_JN5164.a(aescrypt.o)
 .data          0x00000000        0x0 /cygdrive/c/TWESDK/Wks_ToCoNet/CardReader/../../Wks_libToCoNet/libToCoNet/lib/libToCoNetUtils_JN5164.a(aescrypt.o)
 .bss           0x00000000        0x0 /cygdrive/c/TWESDK/Wks_ToCoNet/CardReader/../../Wks_libToCoNet/libToCoNet/lib/libToCoNetUtils_JN5164.a(aescrypt.o)
 .text.aes_encrypt
                0x00000000        0x0 /cygdrive/c/TWESDK/Wks_ToCoNet/CardReader/../../Wks_libToCoNet/libToCoNet/lib/libToCoNetUtils_JN5164.a(aescrypt.o)
 .text.aes_decrypt
                0x00000000        0x0 /cygdrive/c/TWESDK/Wks_ToCoNet/CardReader/../../Wks_libToCoNet/libToCoNet/lib/libToCoNetUtils_JN5164.a(aescrypt.o)
 .text          0x00000000        0x0 /cygdrive/c/TWESDK/Wks_ToCoNet/CardReader/../../Wks_libToCoNet/libToCoNet/lib/libToCoNetUtils_JN5164.a(aeskey.o)
 .data          0x00000000        0x0 /cygdrive/c/TWESDK/Wks_ToCoNet/CardReader/../../Wks_libToCoNet/libToCoNet/lib/libToCoNetUtils_JN5164.a(aeskey.o)
 .bss           0x00000000        0x0 /cygdrive/c/TWESDK/Wks_ToCoNet/CardReader/../../Wks_libToCoNet/libToCoNet/lib/libToCoNetUtils_JN5164.a(aeskey.o)
 .text.aes_encrypt_key128
                0x00000000        0x0 /cygdrive/c/TWESDK/Wks_ToCoNet/CardReader/../../Wks_libToCoNet/libToCoNet/lib/libToCoNetUtils_JN5164.a(aeskey.o)
 .text.aes_encrypt_key192
                0x00000000        0x0 /cygdrive/c/TWESDK/Wks_ToCoNet/CardReader/../../Wks_libToCoNet/libToCoNet/lib/libToCoNetUtils_JN5164.a(aeskey.o)
 .text.aes_encrypt_key256
                0x00000000        0x0 /cygdrive/c/TWESDK/Wks_ToCoNet/CardReader/../../Wks_libToCoNet/libToCoNet/lib/libToCoNetUtils_JN5164.a(aeskey.o)
 .text.aes_encrypt_key
                0x00000000        0x0 /cygdrive/c/TWESDK/Wks_ToCoNet/CardReader/../../Wks_libToCoNet/libToCoNet/lib/libToCoNetUtils_JN5164.a(aeskey.o)
 .text.aes_decrypt_key128
                0x00000000        0x0 /cygdrive/c/TWESDK/Wks_ToCoNet/CardReader/../../Wks_libToCoNet/libToCoNet/lib/libToCoNetUtils_JN5164.a(aeskey.o)
 .text.aes_decrypt_key192
                0x00000000        0x0 /cygdrive/c/TWESDK/Wks_ToCoNet/CardReader/../../Wks_libToCoNet/libToCoNet/lib/libToCoNetUtils_JN5164.a(aeskey.o)
 .text.aes_decrypt_key256
                0x00000000        0x0 /cygdrive/c/TWESDK/Wks_ToCoNet/CardReader/../../Wks_libToCoNet/libToCoNet/lib/libToCoNetUtils_JN5164.a(aeskey.o)
 .text.aes_decrypt_key
                0x00000000        0x0 /cygdrive/c/TWESDK/Wks_ToCoNet/CardReader/../../Wks_libToCoNet/libToCoNet/lib/libToCoNetUtils_JN5164.a(aeskey.o)
 .text          0x00000000        0x0 /cygdrive/c/TWESDK/Wks_ToCoNet/CardReader/../../Wks_libToCoNet/libToCoNet/lib/libToCoNetUtils_JN5164.a(aestab.o)
 .data          0x00000000        0x0 /cygdrive/c/TWESDK/Wks_ToCoNet/CardReader/../../Wks_libToCoNet/libToCoNet/lib/libToCoNetUtils_JN5164.a(aestab.o)
 .bss           0x00000000        0x0 /cygdrive/c/TWESDK/Wks_ToCoNet/CardReader/../../Wks_libToCoNet/libToCoNet/lib/libToCoNetUtils_JN5164.a(aestab.o)
 .text.aes_init
                0x00000000        0x0 /cygdrive/c/TWESDK/Wks_ToCoNet/CardReader/../../Wks_libToCoNet/libToCoNet/lib/libToCoNetUtils_JN5164.a(aestab.o)
 .rodata.t_rc   0x00000000        0x0 /cygdrive/c/TWESDK/Wks_ToCoNet/CardReader/../../Wks_libToCoNet/libToCoNet/lib/libToCoNetUtils_JN5164.a(aestab.o)
 .rodata.t_fn   0x00000000        0x0 /cygdrive/c/TWESDK/Wks_ToCoNet/CardReader/../../Wks_libToCoNet/libToCoNet/lib/libToCoNetUtils_JN5164.a(aestab.o)
 .rodata.t_fl   0x00000000        0x0 /cygdrive/c/TWESDK/Wks_ToCoNet/CardReader/../../Wks_libToCoNet/libToCoNet/lib/libToCoNetUtils_JN5164.a(aestab.o)
 .rodata.t_in   0x00000000        0x0 /cygdrive/c/TWESDK/Wks_ToCoNet/CardReader/../../Wks_libToCoNet/libToCoNet/lib/libToCoNetUtils_JN5164.a(aestab.o)
 .rodata.t_il   0x00000000        0x0 /cygdrive/c/TWESDK/Wks_ToCoNet/CardReader/../../Wks_libToCoNet/libToCoNet/lib/libToCoNetUtils_JN5164.a(aestab.o)
 .rodata.t_im   0x00000000        0x0 /cygdrive/c/TWESDK/Wks_ToCoNet/CardReader/../../Wks_libToCoNet/libToCoNet/lib/libToCoNetUtils_JN5164.a(aestab.o)
 .text          0x00000000        0x0 /cygdrive/c/TWESDK/516x/Components/Library/libAppApi_JN516x.a(AppApi.o)
 .data          0x00000000        0x0 /cygdrive/c/TWESDK/516x/Components/Library/libAppApi_JN516x.a(AppApi.o)
 .bss           0x00000000        0x0 /cygdrive/c/TWESDK/516x/Components/Library/libAppApi_JN516x.a(AppApi.o)
 .text.vAppApiSetMacEntryPoints
                0x00000000        0x0 /cygdrive/c/TWESDK/516x/Components/Library/libAppApi_JN516x.a(AppApi.o)
 .text.vAppApiGetMacEntryPoints
                0x00000000        0x0 /cygdrive/c/TWESDK/516x/Components/Library/libAppApi_JN516x.a(AppApi.o)
 .text.vAppApiRegisterTxStartCallback
                0x00000000        0x0 /cygdrive/c/TWESDK/516x/Components/Library/libAppApi_JN516x.a(AppApi.o)
 .text.vAppApiEnableBeaconResponse
                0x00000000        0x0 /cygdrive/c/TWESDK/516x/Components/Library/libAppApi_JN516x.a(AppApi.o)
 .text.vAppApiNoCalibrationOnWarmStart
                0x00000000        0x0 /cygdrive/c/TWESDK/516x/Components/Library/libAppApi_JN516x.a(AppApi.o)
 .text.bAppApi_CurrentlyScanning
                0x00000000        0x0 /cygdrive/c/TWESDK/516x/Components/Library/libAppApi_JN516x.a(AppApi.o)
 .text.vAppApiSetSecurityMode
                0x00000000        0x0 /cygdrive/c/TWESDK/516x/Components/Library/libAppApi_JN516x.a(AppApi.o)
 .text.vAppApiSetMacAddrLocation
                0x00000000        0x0 /cygdrive/c/TWESDK/516x/Components/Library/libAppApi_JN516x.a(AppApi.o)
 .text.vAppApiSetHighPowerMode
                0x00000000        0x0 /cygdrive/c/TWESDK/516x/Components/Library/libAppApi_JN516x.a(AppApi.o)
 .text          0x00000000        0x0 /cygdrive/c/TWESDK/516x/Components/Library/libAppApi_JN516x.a(AppApiSleep.o)
 .data          0x00000000        0x0 /cygdrive/c/TWESDK/516x/Components/Library/libAppApi_JN516x.a(AppApiSleep.o)
 .bss           0x00000000        0x0 /cygdrive/c/TWESDK/516x/Components/Library/libAppApi_JN516x.a(AppApiSleep.o)
 .text          0x00000000        0x0 /cygdrive/c/TWESDK/516x/Components/Library/libMac_JN516x.a(mac_main.o)
 .data          0x00000000        0x0 /cygdrive/c/TWESDK/516x/Components/Library/libMac_JN516x.a(mac_main.o)
 .bss           0x00000000        0x0 /cygdrive/c/TWESDK/516x/Components/Library/libMac_JN516x.a(mac_main.o)
 .text.bMAC_CurrentlyScanning
                0x00000000        0x0 /cygdrive/c/TWESDK/516x/Components/Library/libMac_JN516x.a(mac_main.o)
 .text          0x00000000        0x0 /cygdrive/c/TWESDK/516x/Components/Library/libMac_JN516x.a(mac_mcps.o)
 .data          0x00000000        0x0 /cygdrive/c/TWESDK/516x/Components/Library/libMac_JN516x.a(mac_mcps.o)
 .bss           0x00000000        0x0 /cygdrive/c/TWESDK/516x/Components/Library/libMac_JN516x.a(mac_mcps.o)
 .text          0x00000000        0x0 /cygdrive/c/TWESDK/516x/Components/Library/libMac_JN516x.a(mac_mlme.o)
 .data          0x00000000        0x0 /cygdrive/c/TWESDK/516x/Components/Library/libMac_JN516x.a(mac_mlme.o)
 .bss           0x00000000        0x0 /cygdrive/c/TWESDK/516x/Components/Library/libMac_JN516x.a(mac_mlme.o)
 .text          0x00000000        0x0 /cygdrive/c/TWESDK/516x/Components/Library/libMac_JN516x.a(mac_pib.o)
 .data          0x00000000        0x0 /cygdrive/c/TWESDK/516x/Components/Library/libMac_JN516x.a(mac_pib.o)
 .bss           0x00000000        0x0 /cygdrive/c/TWESDK/516x/Components/Library/libMac_JN516x.a(mac_pib.o)
 .text          0x00000000        0x0 /cygdrive/c/TWESDK/516x/Components/Library/libMac_JN516x.a(mac_pib_mlme.o)
 .data          0x00000000        0x0 /cygdrive/c/TWESDK/516x/Components/Library/libMac_JN516x.a(mac_pib_mlme.o)
 .bss           0x00000000        0x0 /cygdrive/c/TWESDK/516x/Components/Library/libMac_JN516x.a(mac_pib_mlme.o)
 .text.mac_vExtAddrCmp
                0x00000000        0x0 /cygdrive/c/TWESDK/516x/Components/Library/libMac_JN516x.a(mac_pib_mlme.o)
 .text          0x00000000        0x0 /cygdrive/c/TWESDK/516x/Components/Library/libMac_JN516x.a(mac_pmic.o)
 .data          0x00000000        0x0 /cygdrive/c/TWESDK/516x/Components/Library/libMac_JN516x.a(mac_pmic.o)
 .bss           0x00000000        0x0 /cygdrive/c/TWESDK/516x/Components/Library/libMac_JN516x.a(mac_pmic.o)
 .text          0x00000000        0x0 /cygdrive/c/TWESDK/516x/Components/Library/libMac_JN516x.a(mac_ind.o)
 .data          0x00000000        0x0 /cygdrive/c/TWESDK/516x/Components/Library/libMac_JN516x.a(mac_ind.o)
 .bss           0x00000000        0x0 /cygdrive/c/TWESDK/516x/Components/Library/libMac_JN516x.a(mac_ind.o)
 .text          0x00000000        0x0 /cygdrive/c/TWESDK/516x/Components/Library/libMac_JN516x.a(mac_scan.o)
 .data          0x00000000        0x0 /cygdrive/c/TWESDK/516x/Components/Library/libMac_JN516x.a(mac_scan.o)
 .bss           0x00000000        0x0 /cygdrive/c/TWESDK/516x/Components/Library/libMac_JN516x.a(mac_scan.o)
 .text          0x00000000        0x0 /cygdrive/c/TWESDK/516x/Components/Library/libMac_JN516x.a(mac_lp.o)
 .data          0x00000000        0x0 /cygdrive/c/TWESDK/516x/Components/Library/libMac_JN516x.a(mac_lp.o)
 .bss           0x00000000        0x0 /cygdrive/c/TWESDK/516x/Components/Library/libMac_JN516x.a(mac_lp.o)
 .text.MAC_vLPBRegisterCallback
                0x00000000        0x0 /cygdrive/c/TWESDK/516x/Components/Library/libMac_JN516x.a(mac_lp.o)
 .text.MAC_u32LPBGetBeaconOffset
                0x00000000        0x0 /cygdrive/c/TWESDK/516x/Components/Library/libMac_JN516x.a(mac_lp.o)
 .text.MAC_vLPBSetBeaconMultiplier
                0x00000000        0x0 /cygdrive/c/TWESDK/516x/Components/Library/libMac_JN516x.a(mac_lp.o)
 .text.MAC_u32ConvertTo16uS
                0x00000000        0x0 /cygdrive/c/TWESDK/516x/Components/Library/libMac_JN516x.a(mac_lp.o)
 .text.MAC_vLPBSleep
                0x00000000        0x0 /cygdrive/c/TWESDK/516x/Components/Library/libMac_JN516x.a(mac_lp.o)
 .text.MAC_vLPBAdjustWakeForNextBeacon
                0x00000000        0x0 /cygdrive/c/TWESDK/516x/Components/Library/libMac_JN516x.a(mac_lp.o)
 .text.MAC_bLPBProcessWake
                0x00000000        0x0 /cygdrive/c/TWESDK/516x/Components/Library/libMac_JN516x.a(mac_lp.o)
 .text.MAC_vLPBCalibrateTimer
                0x00000000        0x0 /cygdrive/c/TWESDK/516x/Components/Library/libMac_JN516x.a(mac_lp.o)
 .text          0x00000000        0x0 /cygdrive/c/TWESDK/516x/Components/Library/libMac_JN516x.a(MCPS.o)
 .data          0x00000000        0x0 /cygdrive/c/TWESDK/516x/Components/Library/libMac_JN516x.a(MCPS.o)
 .bss           0x00000000        0x0 /cygdrive/c/TWESDK/516x/Components/Library/libMac_JN516x.a(MCPS.o)
 .text          0x00000000        0x0 /cygdrive/c/TWESDK/516x/Components/Library/libMac_JN516x.a(phy_pib.o)
 .data          0x00000000        0x0 /cygdrive/c/TWESDK/516x/Components/Library/libMac_JN516x.a(phy_pib.o)
 .bss           0x00000000        0x0 /cygdrive/c/TWESDK/516x/Components/Library/libMac_JN516x.a(phy_pib.o)
 .text          0x00000000        0x0 /cygdrive/c/TWESDK/516x/Components/Library/libMac_JN516x.a(TAM.o)
 .data          0x00000000        0x0 /cygdrive/c/TWESDK/516x/Components/Library/libMac_JN516x.a(TAM.o)
 .bss           0x00000000        0x0 /cygdrive/c/TWESDK/516x/Components/Library/libMac_JN516x.a(TAM.o)
 .text          0x00000000        0x0 /cygdrive/c/TWESDK/516x/Components/Library/libMac_JN516x.a(TAMCO.o)
 .data          0x00000000        0x0 /cygdrive/c/TWESDK/516x/Components/Library/libMac_JN516x.a(TAMCO.o)
 .bss           0x00000000        0x0 /cygdrive/c/TWESDK/516x/Components/Library/libMac_JN516x.a(TAMCO.o)
 .text          0x00000000        0x0 /cygdrive/c/TWESDK/516x/Components/Library/libMac_JN516x.a(TAMDE.o)
 .data          0x00000000        0x0 /cygdrive/c/TWESDK/516x/Components/Library/libMac_JN516x.a(TAMDE.o)
 .bss           0x00000000        0x0 /cygdrive/c/TWESDK/516x/Components/Library/libMac_JN516x.a(TAMDE.o)
 .text          0x00000000        0x0 /cygdrive/c/TWESDK/516x/Components/Library/libMac_JN516x.a(TAM_MEM.o)
 .data          0x00000000        0x0 /cygdrive/c/TWESDK/516x/Components/Library/libMac_JN516x.a(TAM_MEM.o)
 .bss           0x00000000        0x0 /cygdrive/c/TWESDK/516x/Components/Library/libMac_JN516x.a(TAM_MEM.o)
 .text          0x00000000        0x0 /cygdrive/c/TWESDK/516x/Components/Library/libMac_JN516x.a(TAM_MLME.o)
 .data          0x00000000        0x0 /cygdrive/c/TWESDK/516x/Components/Library/libMac_JN516x.a(TAM_MLME.o)
 .bss           0x00000000        0x0 /cygdrive/c/TWESDK/516x/Components/Library/libMac_JN516x.a(TAM_MLME.o)
 .text          0x00000000        0x0 /cygdrive/c/TWESDK/516x/Components/Library/libMac_JN516x.a(TAM_TAH.o)
 .data          0x00000000        0x0 /cygdrive/c/TWESDK/516x/Components/Library/libMac_JN516x.a(TAM_TAH.o)
 .bss           0x00000000        0x0 /cygdrive/c/TWESDK/516x/Components/Library/libMac_JN516x.a(TAM_TAH.o)
 .text          0x00000000        0x0 /cygdrive/c/TWESDK/516x/Components/Library/libMac_JN516x.a(TAM_TAI.o)
 .data          0x00000000        0x0 /cygdrive/c/TWESDK/516x/Components/Library/libMac_JN516x.a(TAM_TAI.o)
 .bss           0x00000000        0x0 /cygdrive/c/TWESDK/516x/Components/Library/libMac_JN516x.a(TAM_TAI.o)
 .text          0x00000000        0x0 /cygdrive/c/TWESDK/516x/Components/Library/libMac_JN516x.a(TAM_TAT.o)
 .data          0x00000000        0x0 /cygdrive/c/TWESDK/516x/Components/Library/libMac_JN516x.a(TAM_TAT.o)
 .bss           0x00000000        0x0 /cygdrive/c/TWESDK/516x/Components/Library/libMac_JN516x.a(TAM_TAT.o)
 .text.u8AppApiReadMsq
                0x00000000        0x0 /cygdrive/c/TWESDK/516x/Components/Library/libMac_JN516x.a(TAM_TAT.o)
 .text          0x00000000        0x0 /cygdrive/c/TWESDK/516x/Components/Library/libMac_JN516x.a(TAMcommon.o)
 .data          0x00000000        0x0 /cygdrive/c/TWESDK/516x/Components/Library/libMac_JN516x.a(TAMcommon.o)
 .bss           0x00000000        0x0 /cygdrive/c/TWESDK/516x/Components/Library/libMac_JN516x.a(TAMcommon.o)
 .text.bTACcheckGreater
                0x00000000        0x0 /cygdrive/c/TWESDK/516x/Components/Library/libMac_JN516x.a(TAMcommon.o)
 .text          0x00000000        0x0 /cygdrive/c/TWESDK/516x/Components/Library/libMac_JN516x.a(TAMevent.o)
 .data          0x00000000        0x0 /cygdrive/c/TWESDK/516x/Components/Library/libMac_JN516x.a(TAMevent.o)
 .bss           0x00000000        0x0 /cygdrive/c/TWESDK/516x/Components/Library/libMac_JN516x.a(TAMevent.o)
 .text          0x00000000        0x0 /cygdrive/c/TWESDK/516x/Components/Library/libMac_JN516x.a(TAMqueue.o)
 .data          0x00000000        0x0 /cygdrive/c/TWESDK/516x/Components/Library/libMac_JN516x.a(TAMqueue.o)
 .bss           0x00000000        0x0 /cygdrive/c/TWESDK/516x/Components/Library/libMac_JN516x.a(TAMqueue.o)
 .text.vTAQclearFifo
                0x00000000        0x0 /cygdrive/c/TWESDK/516x/Components/Library/libMac_JN516x.a(TAMqueue.o)
 .text          0x00000000        0x0 /cygdrive/c/TWESDK/516x/Components/Library/libMac_JN516x.a(TAMrxEnable.o)
 .data          0x00000000        0x0 /cygdrive/c/TWESDK/516x/Components/Library/libMac_JN516x.a(TAMrxEnable.o)
 .bss           0x00000000        0x0 /cygdrive/c/TWESDK/516x/Components/Library/libMac_JN516x.a(TAMrxEnable.o)
 .text.vTAM_MLME_RxInCca
                0x00000000        0x0 /cygdrive/c/TWESDK/516x/Components/Library/libMac_JN516x.a(TAMrxEnable.o)
 .text          0x00000000        0x0 /cygdrive/c/TWESDK/516x/Components/Library/libMac_JN516x.a(TAMsecurity.o)
 .data          0x00000000        0x0 /cygdrive/c/TWESDK/516x/Components/Library/libMac_JN516x.a(TAMsecurity.o)
 .bss           0x00000000        0x0 /cygdrive/c/TWESDK/516x/Components/Library/libMac_JN516x.a(TAMsecurity.o)
 .text          0x00000000        0x0 /cygdrive/c/TWESDK/516x/Components/Library/libMac_JN516x.a(TAMsideways.o)
 .data          0x00000000        0x0 /cygdrive/c/TWESDK/516x/Components/Library/libMac_JN516x.a(TAMsideways.o)
 .bss           0x00000000        0x0 /cygdrive/c/TWESDK/516x/Components/Library/libMac_JN516x.a(TAMsideways.o)
 .text          0x00000000        0x0 /cygdrive/c/TWESDK/516x/Components/Library/libMac_JN516x.a(TAMtime.o)
 .data          0x00000000        0x0 /cygdrive/c/TWESDK/516x/Components/Library/libMac_JN516x.a(TAMtime.o)
 .bss           0x00000000        0x0 /cygdrive/c/TWESDK/516x/Components/Library/libMac_JN516x.a(TAMtime.o)
 .text          0x00000000        0x0 /cygdrive/c/TWESDK/516x/Components/Library/libMac_JN516x.a(TAM_AES.o)
 .data          0x00000000        0x0 /cygdrive/c/TWESDK/516x/Components/Library/libMac_JN516x.a(TAM_AES.o)
 .bss           0x00000000        0x0 /cygdrive/c/TWESDK/516x/Components/Library/libMac_JN516x.a(TAM_AES.o)
 .text          0x00000000        0x0 /cygdrive/c/TWESDK/516x/Components/Library/libMac_JN516x.a(mac_acl.o)
 .data          0x00000000        0x0 /cygdrive/c/TWESDK/516x/Components/Library/libMac_JN516x.a(mac_acl.o)
 .bss           0x00000000        0x0 /cygdrive/c/TWESDK/516x/Components/Library/libMac_JN516x.a(mac_acl.o)
 .text          0x00000000        0x0 /cygdrive/c/TWESDK/516x/Components/Library/libMac_JN516x.a(mac_misc.o)
 .data          0x00000000        0x0 /cygdrive/c/TWESDK/516x/Components/Library/libMac_JN516x.a(mac_misc.o)
 .bss           0x00000000        0x0 /cygdrive/c/TWESDK/516x/Components/Library/libMac_JN516x.a(mac_misc.o)
 .text          0x00000000        0x0 /cygdrive/c/TWESDK/516x/Components/Library/libXcv_JN516x.a(xcv_main.o)
 .data          0x00000000        0x0 /cygdrive/c/TWESDK/516x/Components/Library/libXcv_JN516x.a(xcv_main.o)
 .bss           0x00000000        0x0 /cygdrive/c/TWESDK/516x/Components/Library/libXcv_JN516x.a(xcv_main.o)
 .text          0x00000000        0x0 /cygdrive/c/TWESDK/516x/Components/Library/libXcv_JN516x.a(xcv_access.o)
 .data          0x00000000        0x0 /cygdrive/c/TWESDK/516x/Components/Library/libXcv_JN516x.a(xcv_access.o)
 .bss           0x00000000        0x0 /cygdrive/c/TWESDK/516x/Components/Library/libXcv_JN516x.a(xcv_access.o)
 .text          0x00000000        0x0 /cygdrive/c/TWESDK/516x/Components/Library/libXcv_JN516x.a(xcv_isr.o)
 .data          0x00000000        0x0 /cygdrive/c/TWESDK/516x/Components/Library/libXcv_JN516x.a(xcv_isr.o)
 .bss           0x00000000        0x0 /cygdrive/c/TWESDK/516x/Components/Library/libXcv_JN516x.a(xcv_isr.o)
 .text          0x00000000        0x0 /cygdrive/c/TWESDK/516x/Components/Library/libAes_JN516x.a(AEScoprocessorCCM.o)
 .data          0x00000000        0x0 /cygdrive/c/TWESDK/516x/Components/Library/libAes_JN516x.a(AEScoprocessorCCM.o)
 .bss           0x00000000        0x0 /cygdrive/c/TWESDK/516x/Components/Library/libAes_JN516x.a(AEScoprocessorCCM.o)
 .text.bACI_ReadChecksumValidationResult
                0x00000000        0x0 /cygdrive/c/TWESDK/516x/Components/Library/libAes_JN516x.a(AEScoprocessorCCM.o)
 .text.bACI_ReadChecksumData
                0x00000000        0x0 /cygdrive/c/TWESDK/516x/Components/Library/libAes_JN516x.a(AEScoprocessorCCM.o)
 .text          0x00000000        0x0 /cygdrive/c/TWESDK/516x/Components/Library/libTimerServer_JN516x.a(tsv_main.o)
 .data          0x00000000        0x0 /cygdrive/c/TWESDK/516x/Components/Library/libTimerServer_JN516x.a(tsv_main.o)
 .bss           0x00000000        0x0 /cygdrive/c/TWESDK/516x/Components/Library/libTimerServer_JN516x.a(tsv_main.o)
 .text.TSV_eTickProc
                0x00000000        0x0 /cygdrive/c/TWESDK/516x/Components/Library/libTimerServer_JN516x.a(tsv_main.o)
 .text.TSV_eClose
                0x00000000        0x0 /cygdrive/c/TWESDK/516x/Components/Library/libTimerServer_JN516x.a(tsv_main.o)
 .text          0x00000000        0x0 /cygdrive/c/TWESDK/516x/Components/Library/libHardwareApi_JN516x.a(AHI_Analogue.o)
 .data          0x00000000        0x0 /cygdrive/c/TWESDK/516x/Components/Library/libHardwareApi_JN516x.a(AHI_Analogue.o)
 .bss           0x00000000        0x0 /cygdrive/c/TWESDK/516x/Components/Library/libHardwareApi_JN516x.a(AHI_Analogue.o)
 .text.bAHI_APRegulatorEnabled
                0x00000000        0x0 /cygdrive/c/TWESDK/516x/Components/Library/libHardwareApi_JN516x.a(AHI_Analogue.o)
 .text.vAHI_AdcEnable
                0x00000000        0x0 /cygdrive/c/TWESDK/516x/Components/Library/libHardwareApi_JN516x.a(AHI_Analogue.o)
 .text.vAHI_AdcDisable
                0x00000000        0x0 /cygdrive/c/TWESDK/516x/Components/Library/libHardwareApi_JN516x.a(AHI_Analogue.o)
 .text.vAHI_AdcStartAccumulateSamples
                0x00000000        0x0 /cygdrive/c/TWESDK/516x/Components/Library/libHardwareApi_JN516x.a(AHI_Analogue.o)
 .text.vAHI_AdcStartSample
                0x00000000        0x0 /cygdrive/c/TWESDK/516x/Components/Library/libHardwareApi_JN516x.a(AHI_Analogue.o)
 .text.bAHI_AdcPoll
                0x00000000        0x0 /cygdrive/c/TWESDK/516x/Components/Library/libHardwareApi_JN516x.a(AHI_Analogue.o)
 .text.u16AHI_AdcRead
                0x00000000        0x0 /cygdrive/c/TWESDK/516x/Components/Library/libHardwareApi_JN516x.a(AHI_Analogue.o)
 .text.bAHI_AdcEnableSampleBuffer
                0x00000000        0x0 /cygdrive/c/TWESDK/516x/Components/Library/libHardwareApi_JN516x.a(AHI_Analogue.o)
 .text.vAHI_AdcDisableSampleBuffer
                0x00000000        0x0 /cygdrive/c/TWESDK/516x/Components/Library/libHardwareApi_JN516x.a(AHI_Analogue.o)
 .text.u16AHI_AdcSampleBufferOffset
                0x00000000        0x0 /cygdrive/c/TWESDK/516x/Components/Library/libHardwareApi_JN516x.a(AHI_Analogue.o)
 .text.vAHI_ApSetBandGap
                0x00000000        0x0 /cygdrive/c/TWESDK/516x/Components/Library/libHardwareApi_JN516x.a(AHI_Analogue.o)
 .text.vAHI_ApSetSlowConversions
                0x00000000        0x0 /cygdrive/c/TWESDK/516x/Components/Library/libHardwareApi_JN516x.a(AHI_Analogue.o)
 .text.vAHI_ApConfigure
                0x00000000        0x0 /cygdrive/c/TWESDK/516x/Components/Library/libHardwareApi_JN516x.a(AHI_Analogue.o)
 .bss.bAccumulateModeFlag
                0x00000000        0x0 /cygdrive/c/TWESDK/516x/Components/Library/libHardwareApi_JN516x.a(AHI_Analogue.o)
 .bss.bIntEnableFlag
                0x00000000        0x0 /cygdrive/c/TWESDK/516x/Components/Library/libHardwareApi_JN516x.a(AHI_Analogue.o)
 .bss.bContinuousModeFlag
                0x00000000        0x0 /cygdrive/c/TWESDK/516x/Components/Library/libHardwareApi_JN516x.a(AHI_Analogue.o)
 .text          0x00000000        0x0 /cygdrive/c/TWESDK/516x/Components/Library/libHardwareApi_JN516x.a(AHI_BrownOut.o)
 .data          0x00000000        0x0 /cygdrive/c/TWESDK/516x/Components/Library/libHardwareApi_JN516x.a(AHI_BrownOut.o)
 .bss           0x00000000        0x0 /cygdrive/c/TWESDK/516x/Components/Library/libHardwareApi_JN516x.a(AHI_BrownOut.o)
 .text.bAHI_BrownOutDetectionPolled
                0x00000000        0x0 /cygdrive/c/TWESDK/516x/Components/Library/libHardwareApi_JN516x.a(AHI_BrownOut.o)
 .text.bAHI_BrownOutDetection
                0x00000000        0x0 /cygdrive/c/TWESDK/516x/Components/Library/libHardwareApi_JN516x.a(AHI_BrownOut.o)
 .text.bAHI_BrownOutStatus
                0x00000000        0x0 /cygdrive/c/TWESDK/516x/Components/Library/libHardwareApi_JN516x.a(AHI_BrownOut.o)
 .text.bAHI_BrownOutEventResetStatus
                0x00000000        0x0 /cygdrive/c/TWESDK/516x/Components/Library/libHardwareApi_JN516x.a(AHI_BrownOut.o)
 .text.u32AHI_BrownOutPoll
                0x00000000        0x0 /cygdrive/c/TWESDK/516x/Components/Library/libHardwareApi_JN516x.a(AHI_BrownOut.o)
 .text          0x00000000        0x0 /cygdrive/c/TWESDK/516x/Components/Library/libHardwareApi_JN516x.a(AHI_Dio.o)
 .data          0x00000000        0x0 /cygdrive/c/TWESDK/516x/Components/Library/libHardwareApi_JN516x.a(AHI_Dio.o)
 .bss           0x00000000        0x0 /cygdrive/c/TWESDK/516x/Components/Library/libHardwareApi_JN516x.a(AHI_Dio.o)
 .text.u32AHI_DioReadInput
                0x00000000        0x0 /cygdrive/c/TWESDK/516x/Components/Library/libHardwareApi_JN516x.a(AHI_Dio.o)
 .text.vAHI_DioSetByte
                0x00000000        0x0 /cygdrive/c/TWESDK/516x/Components/Library/libHardwareApi_JN516x.a(AHI_Dio.o)
 .text.vAHI_DioWakeEnable
                0x00000000        0x0 /cygdrive/c/TWESDK/516x/Components/Library/libHardwareApi_JN516x.a(AHI_Dio.o)
 .text.vAHI_DioWakeEdge
                0x00000000        0x0 /cygdrive/c/TWESDK/516x/Components/Library/libHardwareApi_JN516x.a(AHI_Dio.o)
 .text.u8AHI_DioReadByte
                0x00000000        0x0 /cygdrive/c/TWESDK/516x/Components/Library/libHardwareApi_JN516x.a(AHI_Dio.o)
 .text          0x00000000        0x0 /cygdrive/c/TWESDK/516x/Components/Library/libHardwareApi_JN516x.a(AHI_Init.o)
 .data          0x00000000        0x0 /cygdrive/c/TWESDK/516x/Components/Library/libHardwareApi_JN516x.a(AHI_Init.o)
 .bss           0x00000000        0x0 /cygdrive/c/TWESDK/516x/Components/Library/libHardwareApi_JN516x.a(AHI_Init.o)
 .data          0x00000000        0x0 /cygdrive/c/TWESDK/516x/Components/Library/libHardwareApi_JN516x.a(AHI_Interrupt.o)
 .bss           0x00000000        0x0 /cygdrive/c/TWESDK/516x/Components/Library/libHardwareApi_JN516x.a(AHI_Interrupt.o)
 .text          0x00000000        0x0 /cygdrive/c/TWESDK/516x/Components/Library/libHardwareApi_JN516x.a(AHI_Reset.o)
 .data          0x00000000        0x0 /cygdrive/c/TWESDK/516x/Components/Library/libHardwareApi_JN516x.a(AHI_Reset.o)
 .bss           0x00000000        0x0 /cygdrive/c/TWESDK/516x/Components/Library/libHardwareApi_JN516x.a(AHI_Reset.o)
 .text          0x00000000        0x0 /cygdrive/c/TWESDK/516x/Components/Library/libHardwareApi_JN516x.a(AHI_Si.o)
 .data          0x00000000        0x0 /cygdrive/c/TWESDK/516x/Components/Library/libHardwareApi_JN516x.a(AHI_Si.o)
 .bss           0x00000000        0x0 /cygdrive/c/TWESDK/516x/Components/Library/libHardwareApi_JN516x.a(AHI_Si.o)
 .text.vAHI_SiMasterConfigure
                0x00000000        0x0 /cygdrive/c/TWESDK/516x/Components/Library/libHardwareApi_JN516x.a(AHI_Si.o)
 .text.vAHI_SiSlaveConfigure
                0x00000000        0x0 /cygdrive/c/TWESDK/516x/Components/Library/libHardwareApi_JN516x.a(AHI_Si.o)
 .text.bAHI_SiMasterSetCmdReg
                0x00000000        0x0 /cygdrive/c/TWESDK/516x/Components/Library/libHardwareApi_JN516x.a(AHI_Si.o)
 .text.vAHI_SiMasterSetCmdReg
                0x00000000        0x0 /cygdrive/c/TWESDK/516x/Components/Library/libHardwareApi_JN516x.a(AHI_Si.o)
 .text.vAHI_SiMasterWriteData8
                0x00000000        0x0 /cygdrive/c/TWESDK/516x/Components/Library/libHardwareApi_JN516x.a(AHI_Si.o)
 .text.vAHI_SiSlaveWriteData8
                0x00000000        0x0 /cygdrive/c/TWESDK/516x/Components/Library/libHardwareApi_JN516x.a(AHI_Si.o)
 .text.u8AHI_SiMasterReadData8
                0x00000000        0x0 /cygdrive/c/TWESDK/516x/Components/Library/libHardwareApi_JN516x.a(AHI_Si.o)
 .text.u8AHI_SiSlaveReadData8
                0x00000000        0x0 /cygdrive/c/TWESDK/516x/Components/Library/libHardwareApi_JN516x.a(AHI_Si.o)
 .text.vAHI_SiMasterWriteSlaveAddr
                0x00000000        0x0 /cygdrive/c/TWESDK/516x/Components/Library/libHardwareApi_JN516x.a(AHI_Si.o)
 .text.bAHI_SiMasterPollBusy
                0x00000000        0x0 /cygdrive/c/TWESDK/516x/Components/Library/libHardwareApi_JN516x.a(AHI_Si.o)
 .text.bAHI_SiMasterPollTransferInProgress
                0x00000000        0x0 /cygdrive/c/TWESDK/516x/Components/Library/libHardwareApi_JN516x.a(AHI_Si.o)
 .text.bAHI_SiMasterCheckRxNack
                0x00000000        0x0 /cygdrive/c/TWESDK/516x/Components/Library/libHardwareApi_JN516x.a(AHI_Si.o)
 .text.bAHI_SiMasterPollArbitrationLost
                0x00000000        0x0 /cygdrive/c/TWESDK/516x/Components/Library/libHardwareApi_JN516x.a(AHI_Si.o)
 .text.vAHI_SiSetLocation
                0x00000000        0x0 /cygdrive/c/TWESDK/516x/Components/Library/libHardwareApi_JN516x.a(AHI_Si.o)
 .text.vAHI_SiMasterDisable
                0x00000000        0x0 /cygdrive/c/TWESDK/516x/Components/Library/libHardwareApi_JN516x.a(AHI_Si.o)
 .text          0x00000000        0x0 /cygdrive/c/TWESDK/516x/Components/Library/libHardwareApi_JN516x.a(AHI_Spi.o)
 .data          0x00000000        0x0 /cygdrive/c/TWESDK/516x/Components/Library/libHardwareApi_JN516x.a(AHI_Spi.o)
 .bss           0x00000000        0x0 /cygdrive/c/TWESDK/516x/Components/Library/libHardwareApi_JN516x.a(AHI_Spi.o)
 .text.vAHI_SpiConfigure
                0x00000000        0x0 /cygdrive/c/TWESDK/516x/Components/Library/libHardwareApi_JN516x.a(AHI_Spi.o)
 .text.vAHI_SpiSetDelayReadEdge
                0x00000000        0x0 /cygdrive/c/TWESDK/516x/Components/Library/libHardwareApi_JN516x.a(AHI_Spi.o)
 .text.vAHI_SpiReadConfiguration
                0x00000000        0x0 /cygdrive/c/TWESDK/516x/Components/Library/libHardwareApi_JN516x.a(AHI_Spi.o)
 .text.vAHI_SpiRestoreConfiguration
                0x00000000        0x0 /cygdrive/c/TWESDK/516x/Components/Library/libHardwareApi_JN516x.a(AHI_Spi.o)
 .text.vAHI_SpiSelect
                0x00000000        0x0 /cygdrive/c/TWESDK/516x/Components/Library/libHardwareApi_JN516x.a(AHI_Spi.o)
 .text.vAHI_SpiStop
                0x00000000        0x0 /cygdrive/c/TWESDK/516x/Components/Library/libHardwareApi_JN516x.a(AHI_Spi.o)
 .text.vAHI_SpiStartTransfer
                0x00000000        0x0 /cygdrive/c/TWESDK/516x/Components/Library/libHardwareApi_JN516x.a(AHI_Spi.o)
 .text.vAHI_SpiStartTransfer32
                0x00000000        0x0 /cygdrive/c/TWESDK/516x/Components/Library/libHardwareApi_JN516x.a(AHI_Spi.o)
 .text.vAHI_SpiStartTransfer16
                0x00000000        0x0 /cygdrive/c/TWESDK/516x/Components/Library/libHardwareApi_JN516x.a(AHI_Spi.o)
 .text.vAHI_SpiStartTransfer8
                0x00000000        0x0 /cygdrive/c/TWESDK/516x/Components/Library/libHardwareApi_JN516x.a(AHI_Spi.o)
 .text.u32AHI_SpiReadTransfer32
                0x00000000        0x0 /cygdrive/c/TWESDK/516x/Components/Library/libHardwareApi_JN516x.a(AHI_Spi.o)
 .text.u16AHI_SpiReadTransfer16
                0x00000000        0x0 /cygdrive/c/TWESDK/516x/Components/Library/libHardwareApi_JN516x.a(AHI_Spi.o)
 .text.u8AHI_SpiReadTransfer8
                0x00000000        0x0 /cygdrive/c/TWESDK/516x/Components/Library/libHardwareApi_JN516x.a(AHI_Spi.o)
 .text.bAHI_SpiPollBusy
                0x00000000        0x0 /cygdrive/c/TWESDK/516x/Components/Library/libHardwareApi_JN516x.a(AHI_Spi.o)
 .text.vAHI_SpiWaitBusy
                0x00000000        0x0 /cygdrive/c/TWESDK/516x/Components/Library/libHardwareApi_JN516x.a(AHI_Spi.o)
 .text.vAHI_SpiSetContinuousMode
                0x00000000        0x0 /cygdrive/c/TWESDK/516x/Components/Library/libHardwareApi_JN516x.a(AHI_Spi.o)
 .text.vAHI_SpiContinuous
                0x00000000        0x0 /cygdrive/c/TWESDK/516x/Components/Library/libHardwareApi_JN516x.a(AHI_Spi.o)
 .text.vAHI_SpiSelSetLocation
                0x00000000        0x0 /cygdrive/c/TWESDK/516x/Components/Library/libHardwareApi_JN516x.a(AHI_Spi.o)
 .text.vAHI_SpiDisable
                0x00000000        0x0 /cygdrive/c/TWESDK/516x/Components/Library/libHardwareApi_JN516x.a(AHI_Spi.o)
 .text          0x00000000        0x0 /cygdrive/c/TWESDK/516x/Components/Library/libHardwareApi_JN516x.a(AHI_System.o)
 .data          0x00000000        0x0 /cygdrive/c/TWESDK/516x/Components/Library/libHardwareApi_JN516x.a(AHI_System.o)
 .bss           0x00000000        0x0 /cygdrive/c/TWESDK/516x/Components/Library/libHardwareApi_JN516x.a(AHI_System.o)
 .text.vAHI_ClearSystemEventStatus
                0x00000000        0x0 /cygdrive/c/TWESDK/516x/Components/Library/libHardwareApi_JN516x.a(AHI_System.o)
 .text.vAHI_ExtendedTemperatureOperation
                0x00000000        0x0 /cygdrive/c/TWESDK/516x/Components/Library/libHardwareApi_JN516x.a(AHI_System.o)
 .text.vAHI_SetJTAGdebugger
                0x00000000        0x0 /cygdrive/c/TWESDK/516x/Components/Library/libHardwareApi_JN516x.a(AHI_System.o)
 .text.vAHI_AntennaDiversityOutputEnable
                0x00000000        0x0 /cygdrive/c/TWESDK/516x/Components/Library/libHardwareApi_JN516x.a(AHI_System.o)
 .text.vAHI_AntennaDiversityEnable
                0x00000000        0x0 /cygdrive/c/TWESDK/516x/Components/Library/libHardwareApi_JN516x.a(AHI_System.o)
 .text.vAHI_AntennaDiversityControl
                0x00000000        0x0 /cygdrive/c/TWESDK/516x/Components/Library/libHardwareApi_JN516x.a(AHI_System.o)
 .text.vAHI_AntennaDiversitySwitch
                0x00000000        0x0 /cygdrive/c/TWESDK/516x/Components/Library/libHardwareApi_JN516x.a(AHI_System.o)
 .text.u8AHI_AntennaDiversityStatus
                0x00000000        0x0 /cygdrive/c/TWESDK/516x/Components/Library/libHardwareApi_JN516x.a(AHI_System.o)
 .text.bAHI_WatchdogResetEvent
                0x00000000        0x0 /cygdrive/c/TWESDK/516x/Components/Library/libHardwareApi_JN516x.a(AHI_System.o)
 .text.u16AHI_WatchdogReadValue
                0x00000000        0x0 /cygdrive/c/TWESDK/516x/Components/Library/libHardwareApi_JN516x.a(AHI_System.o)
 .text.vAHI_WatchdogException
                0x00000000        0x0 /cygdrive/c/TWESDK/516x/Components/Library/libHardwareApi_JN516x.a(AHI_System.o)
 .text.vAHI_EnableFastStartUp
                0x00000000        0x0 /cygdrive/c/TWESDK/516x/Components/Library/libHardwareApi_JN516x.a(AHI_System.o)
 .text.vAHI_PowerXTAL
                0x00000000        0x0 /cygdrive/c/TWESDK/516x/Components/Library/libHardwareApi_JN516x.a(AHI_System.o)
 .text.vAHI_SelectClockSource
                0x00000000        0x0 /cygdrive/c/TWESDK/516x/Components/Library/libHardwareApi_JN516x.a(AHI_System.o)
 .text.vTimerCallback
                0x00000000        0x0 /cygdrive/c/TWESDK/516x/Components/Library/libHardwareApi_JN516x.a(AHI_System.o)
 .text.vAHI_SetStackOverflow
                0x00000000        0x0 /cygdrive/c/TWESDK/516x/Components/Library/libHardwareApi_JN516x.a(AHI_System.o)
 .text.vAHI_StopRandomNumberGenerator
                0x00000000        0x0 /cygdrive/c/TWESDK/516x/Components/Library/libHardwareApi_JN516x.a(AHI_System.o)
 .text.bAHI_RndNumPoll
                0x00000000        0x0 /cygdrive/c/TWESDK/516x/Components/Library/libHardwareApi_JN516x.a(AHI_System.o)
 .text.u16AHI_PowerStatus
                0x00000000        0x0 /cygdrive/c/TWESDK/516x/Components/Library/libHardwareApi_JN516x.a(AHI_System.o)
 .text.vAHI_WriteNVData
                0x00000000        0x0 /cygdrive/c/TWESDK/516x/Components/Library/libHardwareApi_JN516x.a(AHI_System.o)
 .text.u32AHI_ReadNVData
                0x00000000        0x0 /cygdrive/c/TWESDK/516x/Components/Library/libHardwareApi_JN516x.a(AHI_System.o)
 .text.vAHI_Trim32Mhz
                0x00000000        0x0 /cygdrive/c/TWESDK/516x/Components/Library/libHardwareApi_JN516x.a(AHI_System.o)
 .text.vAHI_Trim32KhzRC
                0x00000000        0x0 /cygdrive/c/TWESDK/516x/Components/Library/libHardwareApi_JN516x.a(AHI_System.o)
 .text.bAHI_TrimHighSpeedRCOsc
                0x00000000        0x0 /cygdrive/c/TWESDK/516x/Components/Library/libHardwareApi_JN516x.a(AHI_System.o)
 .text.vAHI_Init32KhzXtal
                0x00000000        0x0 /cygdrive/c/TWESDK/516x/Components/Library/libHardwareApi_JN516x.a(AHI_System.o)
 .text.vAHI_ClockXtalPull
                0x00000000        0x0 /cygdrive/c/TWESDK/516x/Components/Library/libHardwareApi_JN516x.a(AHI_System.o)
 .text.vAHI_StoreDebug
                0x00000000        0x0 /cygdrive/c/TWESDK/516x/Components/Library/libHardwareApi_JN516x.a(AHI_System.o)
 .text.vAHI_RestoreDebug
                0x00000000        0x0 /cygdrive/c/TWESDK/516x/Components/Library/libHardwareApi_JN516x.a(AHI_System.o)
 .text.Delay    0x00000000        0x0 /cygdrive/c/TWESDK/516x/Components/Library/libHardwareApi_JN516x.a(AHI_System.o)
 .text.bAHI_Set32KhzClockMode
                0x00000000        0x0 /cygdrive/c/TWESDK/516x/Components/Library/libHardwareApi_JN516x.a(AHI_System.o)
 .rodata.C.8.3283
                0x00000000        0x0 /cygdrive/c/TWESDK/516x/Components/Library/libHardwareApi_JN516x.a(AHI_System.o)
 .bss.gbTimeOutFlag
                0x00000000        0x0 /cygdrive/c/TWESDK/516x/Components/Library/libHardwareApi_JN516x.a(AHI_System.o)
 COMMON         0x00000000        0x0 /cygdrive/c/TWESDK/516x/Components/Library/libHardwareApi_JN516x.a(AHI_System.o)
 .text          0x00000000        0x0 /cygdrive/c/TWESDK/516x/Components/Library/libHardwareApi_JN516x.a(AHI_TickTimer.o)
 .data          0x00000000        0x0 /cygdrive/c/TWESDK/516x/Components/Library/libHardwareApi_JN516x.a(AHI_TickTimer.o)
 .bss           0x00000000        0x0 /cygdrive/c/TWESDK/516x/Components/Library/libHardwareApi_JN516x.a(AHI_TickTimer.o)
 .text.vAHI_TickTimerIntPendClr
                0x00000000        0x0 /cygdrive/c/TWESDK/516x/Components/Library/libHardwareApi_JN516x.a(AHI_TickTimer.o)
 .text.bAHI_TickTimerIntStatus
                0x00000000        0x0 /cygdrive/c/TWESDK/516x/Components/Library/libHardwareApi_JN516x.a(AHI_TickTimer.o)
 .text.u32AHI_TickTimerRead
                0x00000000        0x0 /cygdrive/c/TWESDK/516x/Components/Library/libHardwareApi_JN516x.a(AHI_TickTimer.o)
 .text          0x00000000        0x0 /cygdrive/c/TWESDK/516x/Components/Library/libHardwareApi_JN516x.a(AHI_Timer.o)
 .data          0x00000000        0x0 /cygdrive/c/TWESDK/516x/Components/Library/libHardwareApi_JN516x.a(AHI_Timer.o)
 .bss           0x00000000        0x0 /cygdrive/c/TWESDK/516x/Components/Library/libHardwareApi_JN516x.a(AHI_Timer.o)
 .text.vAHI_TimerReadCaptureFreeRunning
                0x00000000        0x0 /cygdrive/c/TWESDK/516x/Components/Library/libHardwareApi_JN516x.a(AHI_Timer.o)
 .text.vAHI_TimerReadCapture
                0x00000000        0x0 /cygdrive/c/TWESDK/516x/Components/Library/libHardwareApi_JN516x.a(AHI_Timer.o)
 .text.u8AHI_TimerFired
                0x00000000        0x0 /cygdrive/c/TWESDK/516x/Components/Library/libHardwareApi_JN516x.a(AHI_Timer.o)
 .text.vAHI_TimerDIOControl
                0x00000000        0x0 /cygdrive/c/TWESDK/516x/Components/Library/libHardwareApi_JN516x.a(AHI_Timer.o)
 .text.vAHI_TimerConfigureInputs
                0x00000000        0x0 /cygdrive/c/TWESDK/516x/Components/Library/libHardwareApi_JN516x.a(AHI_Timer.o)
 .text.u16AHI_TimerReadCount
                0x00000000        0x0 /cygdrive/c/TWESDK/516x/Components/Library/libHardwareApi_JN516x.a(AHI_Timer.o)
 .text.vAHI_TimerFineGrainDIOControl
                0x00000000        0x0 /cygdrive/c/TWESDK/516x/Components/Library/libHardwareApi_JN516x.a(AHI_Timer.o)
 .text.vAHI_TimerSetLocation
                0x00000000        0x0 /cygdrive/c/TWESDK/516x/Components/Library/libHardwareApi_JN516x.a(AHI_Timer.o)
 .text.vAHI_TimerStartCapture
                0x00000000        0x0 /cygdrive/c/TWESDK/516x/Components/Library/libHardwareApi_JN516x.a(AHI_Timer.o)
 .text.vAHI_TimerStartDeltaSigma
                0x00000000        0x0 /cygdrive/c/TWESDK/516x/Components/Library/libHardwareApi_JN516x.a(AHI_Timer.o)
 .text.vAHI_TimerStartSingleShot
                0x00000000        0x0 /cygdrive/c/TWESDK/516x/Components/Library/libHardwareApi_JN516x.a(AHI_Timer.o)
 .text          0x00000000        0x0 /cygdrive/c/TWESDK/516x/Components/Library/libHardwareApi_JN516x.a(AHI_TimerInt.o)
 .data          0x00000000        0x0 /cygdrive/c/TWESDK/516x/Components/Library/libHardwareApi_JN516x.a(AHI_TimerInt.o)
 .bss           0x00000000        0x0 /cygdrive/c/TWESDK/516x/Components/Library/libHardwareApi_JN516x.a(AHI_TimerInt.o)
 .text          0x00000000        0x0 /cygdrive/c/TWESDK/516x/Components/Library/libHardwareApi_JN516x.a(AHI_Uart.o)
 .data          0x00000000        0x0 /cygdrive/c/TWESDK/516x/Components/Library/libHardwareApi_JN516x.a(AHI_Uart.o)
 .bss           0x00000000        0x0 /cygdrive/c/TWESDK/516x/Components/Library/libHardwareApi_JN516x.a(AHI_Uart.o)
 .text.vAHI_UartTxOnly
                0x00000000        0x0 /cygdrive/c/TWESDK/516x/Components/Library/libHardwareApi_JN516x.a(AHI_Uart.o)
 .text.vAHI_UartSetClockDivisor
                0x00000000        0x0 /cygdrive/c/TWESDK/516x/Components/Library/libHardwareApi_JN516x.a(AHI_Uart.o)
 .text.bAHI_UartEnable
                0x00000000        0x0 /cygdrive/c/TWESDK/516x/Components/Library/libHardwareApi_JN516x.a(AHI_Uart.o)
 .text.vAHI_UartDisable
                0x00000000        0x0 /cygdrive/c/TWESDK/516x/Components/Library/libHardwareApi_JN516x.a(AHI_Uart.o)
 .text.u8AHI_UartReadModemStatus
                0x00000000        0x0 /cygdrive/c/TWESDK/516x/Components/Library/libHardwareApi_JN516x.a(AHI_Uart.o)
 .text.u8AHI_UartReadInterruptStatus
                0x00000000        0x0 /cygdrive/c/TWESDK/516x/Components/Library/libHardwareApi_JN516x.a(AHI_Uart.o)
 .text.u16AHI_UartBlockWriteData
                0x00000000        0x0 /cygdrive/c/TWESDK/516x/Components/Library/libHardwareApi_JN516x.a(AHI_Uart.o)
 .text.u16AHI_UartBlockReadData
                0x00000000        0x0 /cygdrive/c/TWESDK/516x/Components/Library/libHardwareApi_JN516x.a(AHI_Uart.o)
 .text.vAHI_UartSetLocation
                0x00000000        0x0 /cygdrive/c/TWESDK/516x/Components/Library/libHardwareApi_JN516x.a(AHI_Uart.o)
 .text.vAHI_UartSetAutoFlowCtrl
                0x00000000        0x0 /cygdrive/c/TWESDK/516x/Components/Library/libHardwareApi_JN516x.a(AHI_Uart.o)
 .text.u8AHI_UartReadRxFifoLevel
                0x00000000        0x0 /cygdrive/c/TWESDK/516x/Components/Library/libHardwareApi_JN516x.a(AHI_Uart.o)
 .text.u8AHI_UartReadTxFifoLevel
                0x00000000        0x0 /cygdrive/c/TWESDK/516x/Components/Library/libHardwareApi_JN516x.a(AHI_Uart.o)
 .text.u16AHI_UartReadRxFifoLevel
                0x00000000        0x0 /cygdrive/c/TWESDK/516x/Components/Library/libHardwareApi_JN516x.a(AHI_Uart.o)
 .text.u16AHI_UartReadTxFifoLevel
                0x00000000        0x0 /cygdrive/c/TWESDK/516x/Components/Library/libHardwareApi_JN516x.a(AHI_Uart.o)
 .text.vAHI_UartSetRTS
                0x00000000        0x0 /cygdrive/c/TWESDK/516x/Components/Library/libHardwareApi_JN516x.a(AHI_Uart.o)
 .text.vAHI_UartSetBreak
                0x00000000        0x0 /cygdrive/c/TWESDK/516x/Components/Library/libHardwareApi_JN516x.a(AHI_Uart.o)
 .rodata.au8ClockDivisor.3223
                0x00000000        0x0 /cygdrive/c/TWESDK/516x/Components/Library/libHardwareApi_JN516x.a(AHI_Uart.o)
 .text          0x00000000        0x0 /cygdrive/c/TWESDK/516x/Components/Library/libHardwareApi_JN516x.a(AHI_WakeTimer.o)
 .data          0x00000000        0x0 /cygdrive/c/TWESDK/516x/Components/Library/libHardwareApi_JN516x.a(AHI_WakeTimer.o)
 .bss           0x00000000        0x0 /cygdrive/c/TWESDK/516x/Components/Library/libHardwareApi_JN516x.a(AHI_WakeTimer.o)
 .text.vAHI_WakeTimerStartLarge
                0x00000000        0x0 /cygdrive/c/TWESDK/516x/Components/Library/libHardwareApi_JN516x.a(AHI_WakeTimer.o)
 .text.u8AHI_WakeTimerStatus
                0x00000000        0x0 /cygdrive/c/TWESDK/516x/Components/Library/libHardwareApi_JN516x.a(AHI_WakeTimer.o)
 .text.u32AHI_WakeTimerRead
                0x00000000        0x0 /cygdrive/c/TWESDK/516x/Components/Library/libHardwareApi_JN516x.a(AHI_WakeTimer.o)
 .text.u64AHI_WakeTimerReadLarge
                0x00000000        0x0 /cygdrive/c/TWESDK/516x/Components/Library/libHardwareApi_JN516x.a(AHI_WakeTimer.o)
 .text.u32AHI_WakeTimerCalibrateEnhanced
                0x00000000        0x0 /cygdrive/c/TWESDK/516x/Components/Library/libHardwareApi_JN516x.a(AHI_WakeTimer.o)
 .text          0x00000000        0x0 /cygdrive/c/TWESDK/516x/Components/Library/libHardwareApi_JN516x.a(AHI_Flash.o)
 .data          0x00000000        0x0 /cygdrive/c/TWESDK/516x/Components/Library/libHardwareApi_JN516x.a(AHI_Flash.o)
 .bss           0x00000000        0x0 /cygdrive/c/TWESDK/516x/Components/Library/libHardwareApi_JN516x.a(AHI_Flash.o)
 .text.bAHI_FlashControl
                0x00000000        0x0 /cygdrive/c/TWESDK/516x/Components/Library/libHardwareApi_JN516x.a(AHI_Flash.o)
 .text.bAHI_FlashEECerrorInterruptSet
                0x00000000        0x0 /cygdrive/c/TWESDK/516x/Components/Library/libHardwareApi_JN516x.a(AHI_Flash.o)
 .text.u32RaiseDigitalVoltage
                0x00000000        0x0 /cygdrive/c/TWESDK/516x/Components/Library/libHardwareApi_JN516x.a(AHI_Flash.o)
 .text.vLowerDigitalVoltage
                0x00000000        0x0 /cygdrive/c/TWESDK/516x/Components/Library/libHardwareApi_JN516x.a(AHI_Flash.o)
 .text.vSetFlashWriteEnable
                0x00000000        0x0 /cygdrive/c/TWESDK/516x/Components/Library/libHardwareApi_JN516x.a(AHI_Flash.o)
 .text.vProgramFlashBlock
                0x00000000        0x0 /cygdrive/c/TWESDK/516x/Components/Library/libHardwareApi_JN516x.a(AHI_Flash.o)
 .text.vEraseFlashSector
                0x00000000        0x0 /cygdrive/c/TWESDK/516x/Components/Library/libHardwareApi_JN516x.a(AHI_Flash.o)
 .text.vConfigureSpi
                0x00000000        0x0 /cygdrive/c/TWESDK/516x/Components/Library/libHardwareApi_JN516x.a(AHI_Flash.o)
 .text.bAHI_FlashInternalMultiSectorErase
                0x00000000        0x0 /cygdrive/c/TWESDK/516x/Components/Library/libHardwareApi_JN516x.a(AHI_Flash.o)
 .text.vAHI_FlashPowerUp
                0x00000000        0x0 /cygdrive/c/TWESDK/516x/Components/Library/libHardwareApi_JN516x.a(AHI_Flash.o)
 .text.vAHI_FlashPowerDown
                0x00000000        0x0 /cygdrive/c/TWESDK/516x/Components/Library/libHardwareApi_JN516x.a(AHI_Flash.o)
 .text.bAHI_FullFlashRead
                0x00000000        0x0 /cygdrive/c/TWESDK/516x/Components/Library/libHardwareApi_JN516x.a(AHI_Flash.o)
 .text.bAHI_FlashRead
                0x00000000        0x0 /cygdrive/c/TWESDK/516x/Components/Library/libHardwareApi_JN516x.a(AHI_Flash.o)
 .text.bAHI_FullFlashProgram
                0x00000000        0x0 /cygdrive/c/TWESDK/516x/Components/Library/libHardwareApi_JN516x.a(AHI_Flash.o)
 .text.bAHI_FlashProgram
                0x00000000        0x0 /cygdrive/c/TWESDK/516x/Components/Library/libHardwareApi_JN516x.a(AHI_Flash.o)
 .text.bAHI_FlashEraseSector
                0x00000000        0x0 /cygdrive/c/TWESDK/516x/Components/Library/libHardwareApi_JN516x.a(AHI_Flash.o)
 .text.bAHI_FlashInit
                0x00000000        0x0 /cygdrive/c/TWESDK/516x/Components/Library/libHardwareApi_JN516x.a(AHI_Flash.o)
 COMMON         0x00000000        0x0 /cygdrive/c/TWESDK/516x/Components/Library/libHardwareApi_JN516x.a(AHI_Flash.o)
 .text          0x00000000        0x0 /cygdrive/c/TWESDK/516x/Components/Library/libHardwareApi_JN516x.a(AHI_SpiSlave.o)
 .data          0x00000000        0x0 /cygdrive/c/TWESDK/516x/Components/Library/libHardwareApi_JN516x.a(AHI_SpiSlave.o)
 .bss           0x00000000        0x0 /cygdrive/c/TWESDK/516x/Components/Library/libHardwareApi_JN516x.a(AHI_SpiSlave.o)
 .text.bAHI_SpiSlaveEnable
                0x00000000        0x0 /cygdrive/c/TWESDK/516x/Components/Library/libHardwareApi_JN516x.a(AHI_SpiSlave.o)
 .text.vAHI_SpiSlaveReset
                0x00000000        0x0 /cygdrive/c/TWESDK/516x/Components/Library/libHardwareApi_JN516x.a(AHI_SpiSlave.o)
 .text.vAHI_SpiSlaveDisable
                0x00000000        0x0 /cygdrive/c/TWESDK/516x/Components/Library/libHardwareApi_JN516x.a(AHI_SpiSlave.o)
 .text.vAHI_SpiSlaveTxWriteByte
                0x00000000        0x0 /cygdrive/c/TWESDK/516x/Components/Library/libHardwareApi_JN516x.a(AHI_SpiSlave.o)
 .text.u8AHI_SpiSlaveRxReadByte
                0x00000000        0x0 /cygdrive/c/TWESDK/516x/Components/Library/libHardwareApi_JN516x.a(AHI_SpiSlave.o)
 .text.u8AHI_SpiSlaveTxFillLevel
                0x00000000        0x0 /cygdrive/c/TWESDK/516x/Components/Library/libHardwareApi_JN516x.a(AHI_SpiSlave.o)
 .text.u8AHI_SpiSlaveRxFillLevel
                0x00000000        0x0 /cygdrive/c/TWESDK/516x/Components/Library/libHardwareApi_JN516x.a(AHI_SpiSlave.o)
 .text.u8AHI_SpiSlaveStatus
                0x00000000        0x0 /cygdrive/c/TWESDK/516x/Components/Library/libHardwareApi_JN516x.a(AHI_SpiSlave.o)
 .text.vAHI_SpiSlaveRegisterCallback
                0x00000000        0x0 /cygdrive/c/TWESDK/516x/Components/Library/libHardwareApi_JN516x.a(AHI_SpiSlave.o)
 .text          0x00000000        0x0 /cygdrive/c/TWESDK/516x/Components/Library/libHardwareApi_JN516x.a(AHI_Infrared.o)
 .data          0x00000000        0x0 /cygdrive/c/TWESDK/516x/Components/Library/libHardwareApi_JN516x.a(AHI_Infrared.o)
 .bss           0x00000000        0x0 /cygdrive/c/TWESDK/516x/Components/Library/libHardwareApi_JN516x.a(AHI_Infrared.o)
 .text.bAHI_InfraredEnable
                0x00000000        0x0 /cygdrive/c/TWESDK/516x/Components/Library/libHardwareApi_JN516x.a(AHI_Infrared.o)
 .text.vAHI_InfraredDisable
                0x00000000        0x0 /cygdrive/c/TWESDK/516x/Components/Library/libHardwareApi_JN516x.a(AHI_Infrared.o)
 .text.bAHI_InfraredStart
                0x00000000        0x0 /cygdrive/c/TWESDK/516x/Components/Library/libHardwareApi_JN516x.a(AHI_Infrared.o)
 .text.bAHI_InfraredStatus
                0x00000000        0x0 /cygdrive/c/TWESDK/516x/Components/Library/libHardwareApi_JN516x.a(AHI_Infrared.o)
 .text.vAHI_InfraredRegisterCallback
                0x00000000        0x0 /cygdrive/c/TWESDK/516x/Components/Library/libHardwareApi_JN516x.a(AHI_Infrared.o)
 .text          0x00000000        0x0 /cygdrive/c/TWESDK/516x/Components/Library/libHardwareApi_JN516x.a(InternalFlashApi.o)
 .data          0x00000000        0x0 /cygdrive/c/TWESDK/516x/Components/Library/libHardwareApi_JN516x.a(InternalFlashApi.o)
 .bss           0x00000000        0x0 /cygdrive/c/TWESDK/516x/Components/Library/libHardwareApi_JN516x.a(InternalFlashApi.o)
 .text.bFlashRead
                0x00000000        0x0 /cygdrive/c/TWESDK/516x/Components/Library/libHardwareApi_JN516x.a(InternalFlashApi.o)
 .text.bFlashProgramPage
                0x00000000        0x0 /cygdrive/c/TWESDK/516x/Components/Library/libHardwareApi_JN516x.a(InternalFlashApi.o)
 .text.bFlashProgram
                0x00000000        0x0 /cygdrive/c/TWESDK/516x/Components/Library/libHardwareApi_JN516x.a(InternalFlashApi.o)
 .text.bInitFlashEraseProg
                0x00000000        0x0 /cygdrive/c/TWESDK/516x/Components/Library/libHardwareApi_JN516x.a(InternalFlashApi.o)
 .text.bFinaliseFlashEraseProg
                0x00000000        0x0 /cygdrive/c/TWESDK/516x/Components/Library/libHardwareApi_JN516x.a(InternalFlashApi.o)
 .text.bFlashErase
                0x00000000        0x0 /cygdrive/c/TWESDK/516x/Components/Library/libHardwareApi_JN516x.a(InternalFlashApi.o)
 .rodata.au8LuCpuClockSpeedIndex
                0x00000000        0x0 /cygdrive/c/TWESDK/516x/Components/Library/libHardwareApi_JN516x.a(InternalFlashApi.o)
 .rodata.au8LuFlashCraDivisor
                0x00000000        0x0 /cygdrive/c/TWESDK/516x/Components/Library/libHardwareApi_JN516x.a(InternalFlashApi.o)
 .rodata.au16Lu100ms
                0x00000000        0x0 /cygdrive/c/TWESDK/516x/Components/Library/libHardwareApi_JN516x.a(InternalFlashApi.o)
 .rodata.au8Lu1ms
                0x00000000        0x0 /cygdrive/c/TWESDK/516x/Components/Library/libHardwareApi_JN516x.a(InternalFlashApi.o)
 .text          0x00000000        0x0 /cygdrive/c/TWESDK/516x/Components/Library/libMicroSpecific_JN516x.a(MicroInt.o)
 .data          0x00000000        0x0 /cygdrive/c/TWESDK/516x/Components/Library/libMicroSpecific_JN516x.a(MicroInt.o)
 .bss           0x00000000        0x0 /cygdrive/c/TWESDK/516x/Components/Library/libMicroSpecific_JN516x.a(MicroInt.o)
 .text.vMicroIntSetGlobalEnable
                0x00000000        0x0 /cygdrive/c/TWESDK/516x/Components/Library/libMicroSpecific_JN516x.a(MicroInt.o)
 .text          0x00000000        0x0 /cygdrive/c/TWESDK/516x/Components/Library/libBoot_JN516x.a(ExceptionHandler.o)
 .data          0x00000000        0x0 /cygdrive/c/TWESDK/516x/Components/Library/libBoot_JN516x.a(ExceptionHandler.o)
 .bss           0x00000000        0x0 /cygdrive/c/TWESDK/516x/Components/Library/libBoot_JN516x.a(ExceptionHandler.o)
 .text          0x00000000        0x0 /cygdrive/c/TWESDK/516x/Components/Library/libBoot_JN516x.a(Heap.o)
 .data          0x00000000        0x0 /cygdrive/c/TWESDK/516x/Components/Library/libBoot_JN516x.a(Heap.o)
 .bss           0x00000000        0x0 /cygdrive/c/TWESDK/516x/Components/Library/libBoot_JN516x.a(Heap.o)
 .text.iHeap_ReturnNumberOfOverwrittenBytes
                0x00000000        0x0 /cygdrive/c/TWESDK/516x/Components/Library/libBoot_JN516x.a(Heap.o)
 .text.iHeap_InitialiseOverwriteCheck
                0x00000000        0x0 /cygdrive/c/TWESDK/516x/Components/Library/libBoot_JN516x.a(Heap.o)
 .bss.u32OverwriteCheckStart
                0x00000000        0x0 /cygdrive/c/TWESDK/516x/Components/Library/libBoot_JN516x.a(Heap.o)
 .text          0x00000000        0x0 /cygdrive/c/TWESDK/516x/Components/Library/libMaths_JN516x.a(Maths.o)
 .data          0x00000000        0x0 /cygdrive/c/TWESDK/516x/Components/Library/libMaths_JN516x.a(Maths.o)
 .bss           0x00000000        0x0 /cygdrive/c/TWESDK/516x/Components/Library/libMaths_JN516x.a(Maths.o)
 .text.__modsi3
                0x00000000        0x0 /cygdrive/c/TWESDK/516x/Components/Library/libMaths_JN516x.a(Maths.o)
 .text          0x00000000        0x0 /cygdrive/c/TWESDK/516x/Components/Library/libMaths_JN516x.a(Maths_muldi3.o)
 .data          0x00000000        0x0 /cygdrive/c/TWESDK/516x/Components/Library/libMaths_JN516x.a(Maths_muldi3.o)
 .bss           0x00000000        0x0 /cygdrive/c/TWESDK/516x/Components/Library/libMaths_JN516x.a(Maths_muldi3.o)
 .text.__muldi3
                0x00000000        0x0 /cygdrive/c/TWESDK/516x/Components/Library/libMaths_JN516x.a(Maths_muldi3.o)
 .text          0x00000000        0x0 /cygdrive/c/TWESDK/516x/Components/Library/libMaths_JN516x.a(Maths_divdi3.o)
 .data          0x00000000        0x0 /cygdrive/c/TWESDK/516x/Components/Library/libMaths_JN516x.a(Maths_divdi3.o)
 .bss           0x00000000        0x0 /cygdrive/c/TWESDK/516x/Components/Library/libMaths_JN516x.a(Maths_divdi3.o)
 .text.udivmoddi4
                0x00000000        0x0 /cygdrive/c/TWESDK/516x/Components/Library/libMaths_JN516x.a(Maths_divdi3.o)
 .text.__udivdi3
                0x00000000        0x0 /cygdrive/c/TWESDK/516x/Components/Library/libMaths_JN516x.a(Maths_divdi3.o)
 .text.__umoddi3
                0x00000000        0x0 /cygdrive/c/TWESDK/516x/Components/Library/libMaths_JN516x.a(Maths_divdi3.o)
 .text.__divdi3
                0x00000000        0x0 /cygdrive/c/TWESDK/516x/Components/Library/libMaths_JN516x.a(Maths_divdi3.o)
 .text.__moddi3
                0x00000000        0x0 /cygdrive/c/TWESDK/516x/Components/Library/libMaths_JN516x.a(Maths_divdi3.o)
 .text          0x00000000        0x0 /cygdrive/c/TWESDK/516x/Components/Library/libAppApi_JN516x.a(AppHousekeeping.o)
 .data          0x00000000        0x0 /cygdrive/c/TWESDK/516x/Components/Library/libAppApi_JN516x.a(AppHousekeeping.o)
 .bss           0x00000000        0x0 /cygdrive/c/TWESDK/516x/Components/Library/libAppApi_JN516x.a(AppHousekeeping.o)
 .text.vDefaultAttemptFunc
                0x00000000        0x0 /cygdrive/c/TWESDK/516x/Components/Library/libAppApi_JN516x.a(AppHousekeeping.o)
 .text.vAppHousekeepingTimerExpiry
                0x00000000        0x0 /cygdrive/c/TWESDK/516x/Components/Library/libAppApi_JN516x.a(AppHousekeeping.o)
 .text.vAppHousekeepingInit
                0x00000000        0x0 /cygdrive/c/TWESDK/516x/Components/Library/libAppApi_JN516x.a(AppHousekeeping.o)
 .text          0x00000000        0x0 /cygdrive/c/TWESDK/516x/Components/Library/libAES_CCM_SW_PATCH_JN516x.a(aes_ccmstar.o)
 .data          0x00000000        0x0 /cygdrive/c/TWESDK/516x/Components/Library/libAES_CCM_SW_PATCH_JN516x.a(aes_ccmstar.o)
 .bss           0x00000000        0x0 /cygdrive/c/TWESDK/516x/Components/Library/libAES_CCM_SW_PATCH_JN516x.a(aes_ccmstar.o)
 .text          0x00000000        0x0 /cygdrive/c/TWESDK/516x/Components/Library/libAes_JN516x.a(AEScoprocessorAPIinterrupts.o)
 .data          0x00000000        0x0 /cygdrive/c/TWESDK/516x/Components/Library/libAes_JN516x.a(AEScoprocessorAPIinterrupts.o)
 .bss           0x00000000        0x0 /cygdrive/c/TWESDK/516x/Components/Library/libAes_JN516x.a(AEScoprocessorAPIinterrupts.o)
 .text.vACI_SetInterruptCallback
                0x00000000        0x0 /cygdrive/c/TWESDK/516x/Components/Library/libAes_JN516x.a(AEScoprocessorAPIinterrupts.o)
 .text.u8BuildInterruptMask
                0x00000000        0x0 /cygdrive/c/TWESDK/516x/Components/Library/libAes_JN516x.a(AEScoprocessorAPIinterrupts.o)
 .text.vACI_ClearInterruptStatus
                0x00000000        0x0 /cygdrive/c/TWESDK/516x/Components/Library/libAes_JN516x.a(AEScoprocessorAPIinterrupts.o)
 .text.vACI_ClearInterruptEnable
                0x00000000        0x0 /cygdrive/c/TWESDK/516x/Components/Library/libAes_JN516x.a(AEScoprocessorAPIinterrupts.o)
 .text.vACI_SetInterruptEnable
                0x00000000        0x0 /cygdrive/c/TWESDK/516x/Components/Library/libAes_JN516x.a(AEScoprocessorAPIinterrupts.o)
 .text.vPackInterruptStructure
                0x00000000        0x0 /cygdrive/c/TWESDK/516x/Components/Library/libAes_JN516x.a(AEScoprocessorAPIinterrupts.o)
 .text.vACI_ReadInterruptEnable
                0x00000000        0x0 /cygdrive/c/TWESDK/516x/Components/Library/libAes_JN516x.a(AEScoprocessorAPIinterrupts.o)
 .text.vACI_ReadInterruptStatus
                0x00000000        0x0 /cygdrive/c/TWESDK/516x/Components/Library/libAes_JN516x.a(AEScoprocessorAPIinterrupts.o)
 .text          0x00000000        0x0 /cygdrive/c/TWESDK/516x/Components/Library/libAes_JN516x.a(AEScoprocessorECB.o)
 .data          0x00000000        0x0 /cygdrive/c/TWESDK/516x/Components/Library/libAes_JN516x.a(AEScoprocessorECB.o)
 .bss           0x00000000        0x0 /cygdrive/c/TWESDK/516x/Components/Library/libAes_JN516x.a(AEScoprocessorECB.o)
 .text          0x00000000        0x0 /cygdrive/c/TWESDK/516x/Components/Library/libAes_JN516x.a(AEScoprocessorAPI.o)
 .data          0x00000000        0x0 /cygdrive/c/TWESDK/516x/Components/Library/libAes_JN516x.a(AEScoprocessorAPI.o)
 .bss           0x00000000        0x0 /cygdrive/c/TWESDK/516x/Components/Library/libAes_JN516x.a(AEScoprocessorAPI.o)
 .text.bACI_issueReset
                0x00000000        0x0 /cygdrive/c/TWESDK/516x/Components/Library/libAes_JN516x.a(AEScoprocessorAPI.o)
 .data          0x00000000        0x0 /cygdrive/c/TWESDK/Tools/ba-elf-ba2/bin/../lib/gcc/ba-elf/4.1.2/../../../../ba-elf/lib/ba2/libc.a(memcmp.o)
 .bss           0x00000000        0x0 /cygdrive/c/TWESDK/Tools/ba-elf-ba2/bin/../lib/gcc/ba-elf/4.1.2/../../../../ba-elf/lib/ba2/libc.a(memcmp.o)
 .stabstr       0x00000000        0x0 /cygdrive/c/TWESDK/Tools/ba-elf-ba2/bin/../lib/gcc/ba-elf/4.1.2/../../../../ba-elf/lib/ba2/libc.a(memcmp.o)
 .data          0x00000000        0x0 /cygdrive/c/TWESDK/Tools/ba-elf-ba2/bin/../lib/gcc/ba-elf/4.1.2/../../../../ba-elf/lib/ba2/libc.a(memcpy.o)
 .bss           0x00000000        0x0 /cygdrive/c/TWESDK/Tools/ba-elf-ba2/bin/../lib/gcc/ba-elf/4.1.2/../../../../ba-elf/lib/ba2/libc.a(memcpy.o)
 .stabstr       0x00000000        0x0 /cygdrive/c/TWESDK/Tools/ba-elf-ba2/bin/../lib/gcc/ba-elf/4.1.2/../../../../ba-elf/lib/ba2/libc.a(memcpy.o)
 .data          0x00000000        0x0 /cygdrive/c/TWESDK/Tools/ba-elf-ba2/bin/../lib/gcc/ba-elf/4.1.2/../../../../ba-elf/lib/ba2/libc.a(memset.o)
 .bss           0x00000000        0x0 /cygdrive/c/TWESDK/Tools/ba-elf-ba2/bin/../lib/gcc/ba-elf/4.1.2/../../../../ba-elf/lib/ba2/libc.a(memset.o)
 .stabstr       0x00000000        0x0 /cygdrive/c/TWESDK/Tools/ba-elf-ba2/bin/../lib/gcc/ba-elf/4.1.2/../../../../ba-elf/lib/ba2/libc.a(memset.o)

Memory Configuration

Name             Origin             Length             Attributes
flash            0x00080000         0x00028000
ram              0x0400004c         0x00007fb4
*default*        0x00000000         0xffffffff

Linker script and memory map

LOAD objs_JN5164/CardReader.o
LOAD /cygdrive/c/TWESDK/Wks_ToCoNet/CardReader/../../Wks_libToCoNet/libToCoNet/lib/libToCoNet_JN5164.a
LOAD /cygdrive/c/TWESDK/Wks_ToCoNet/CardReader/../../Wks_libToCoNet/libToCoNet/lib/libToCoNetExt_JN5164.a
LOAD /cygdrive/c/TWESDK/Wks_ToCoNet/CardReader/../../Wks_libToCoNet/libToCoNet/lib/libToCoNetUtils_JN5164.a
START GROUP
LOAD /cygdrive/c/TWESDK/516x/Components/Library/libAppApi_JN516x.a
LOAD /cygdrive/c/TWESDK/516x/Components/Library/libMac_JN516x.a
LOAD /cygdrive/c/TWESDK/516x/Components/Library/libTof_JN516x.a
LOAD /cygdrive/c/TWESDK/516x/Components/Library/libXcv_JN516x.a
LOAD /cygdrive/c/TWESDK/516x/Components/Library/libAES_CCM_SW_PATCH_JN516x.a
LOAD /cygdrive/c/TWESDK/516x/Components/Library/libAes_JN516x.a
LOAD /cygdrive/c/TWESDK/516x/Components/Library/libTimerServer_JN516x.a
LOAD /cygdrive/c/TWESDK/516x/Components/Library/libHardwareApi_JN516x.a
LOAD /cygdrive/c/TWESDK/516x/Components/Library/libMicroSpecific_JN516x.a
LOAD /cygdrive/c/TWESDK/516x/Components/Library/libBoot_JN516x.a
LOAD /cygdrive/c/TWESDK/516x/Components/Library/libMaths_JN516x.a
LOAD /cygdrive/c/TWESDK/Wks_ToCoNet/CardReader/../../Wks_libToCoNet/libToCoNet/lib/libToCoNet_JN5164.a
LOAD /cygdrive/c/TWESDK/Wks_ToCoNet/CardReader/../../Wks_libToCoNet/libToCoNet/lib/libToCoNetExt_JN5164.a
LOAD /cygdrive/c/TWESDK/Wks_ToCoNet/CardReader/../../Wks_libToCoNet/libToCoNet/lib/libToCoNetUtils_JN5164.a
END GROUP
LOAD /cygdrive/c/TWESDK/Tools/ba-elf-ba2/bin/../lib/gcc/ba-elf/4.1.2/ba2/libgcc.a
LOAD /cygdrive/c/TWESDK/Tools/ba-elf-ba2/bin/../lib/gcc/ba-elf/4.1.2/../../../../ba-elf/lib/ba2/libc.a
LOAD /cygdrive/c/TWESDK/Tools/ba-elf-ba2/bin/../lib/gcc/ba-elf/4.1.2/ba2/libgcc.a
                0x00001000                _stack_size = 0x1000
                0x00080038                __exception_vsr_table = 0x80038
                0x04000000                _pSPIflashFncTable = 0x4000000
                0x00001000                _stack_size = 0x1000
                0x00000044                restore_state = 0x44
                0x0000004a                _bZSPIWaitWIPClear = 0x4a
                0x00000050                _u16ZSPIflashRDID = 0x50
                0x00000056                _u8SelectFlashChipType = 0x56
                0x0000005c                _memcpy = 0x5c
                0x00000066                _vBootFlashProg = 0x66
                [0x00000d16]                _minimum_heap_size = DEFINED (_minimum_heap_size)?_minimum_heap_size:0xd16
                0x00000000                _SwConfig = (DEFINED (g_bSWConf_Debug) | (DEFINED (g_bSWConf_AltDebugPort) << 0x1))

.version        0x0007fffc        0x4
                0x0007fffc        0x4 LONG 0x4030008

.bir            0x00080000       0x10
                0x00080000                _flash_start = <code 342> (.)
                0x00080000                _flash_beg = <code 342> (.)
                0x00080000        0x4 LONG 0x12345678
                0x00080004        0x4 LONG 0x11223344
                0x00080008        0x4 LONG 0x55667788
                0x0008000c        0x1 BYTE 0x8
                0x0008000d        0x1 BYTE 0x1
                0x0008000e        0x2 SHORT 0x0

.flashheader    0x00080010       0x28
                0x00080010        0x4 LONG 0x0
                0x00080014        0x4 LONG 0x0
                0x00080018        0x4 LONG 0x0
                0x0008001c        0x2 SHORT 0x0
                0x0008001e        0x2 SHORT 0x0 <code 342> (_SwConfig)
                0x00080020                _enc_start = <code 342> (.)
                0x00080020        0x4 LONG 0xb95c <code 342> (_image_len)
                0x00000000                _enc_offset = (_enc_start & 0xf)
                [0x00000020]                _enc_start = (_enc_start - _flash_beg)
                0x00080024        0x4 LONG 0x8b930 <code 342> (_flash_data_start)
                0x00080028        0x2 SHORT 0x13 ((<code 342> (_ram_data_start) / 0x4) & 0xffff)
                0x0008002a        0x2 SHORT 0xb ((<code 342> (_ram_data_len) / 0x4) & 0xffff)
                0x0008002c        0x2 SHORT 0x1e ((<code 342> (_bss_start) / 0x4) & 0xffff)
                0x0008002e        0x2 SHORT 0x677 ((<code 342> (_bss_len) / 0x4) & 0xffff)
                0x00080030        0x4 LONG 0x82298 <code 342> (_AppWarmStart)
                0x00080034        0x4 LONG 0x82444 <code 342> (_AppColdStart)
                0x00000044                PROVIDE (_vException_BusError, restore_state)
                0x00000044                PROVIDE (_vException_UnalignedAccess, restore_state)
                0x00000044                PROVIDE (_vException_IllegalInstruction, restore_state)
                0x00000044                PROVIDE (_vException_SysCall, restore_state)
                0x00000044                PROVIDE (_vException_Trap, restore_state)
                0x00000044                PROVIDE (_vException_StackOverflow, restore_state)
                0x00080038                . = <code 342> (__exception_vsr_table)

.vsr_table      0x00080038       0x18
                0x00080038        0x4 LONG 0x44 <code 342> (_vException_BusError)
                0x0008003c        0x4 LONG 0x44 <code 342> (_vException_UnalignedAccess)
                0x00080040        0x4 LONG 0x44 <code 342> (_vException_IllegalInstruction)
                0x00080044        0x4 LONG 0x44 <code 342> (_vException_SysCall)
                0x00080048        0x4 LONG 0x44 <code 342> (_vException_Trap)
                0x0008004c        0x4 LONG 0x44 <code 342> (_vException_StackOverflow)

.vsr_handlers   0x00080050       0xab
 *(.vsr_handlers)
 .vsr_handlers  0x00080050       0xab /cygdrive/c/TWESDK/516x/Components/Library/libBoot_JN516x.a(ExceptionHandler.o)
                0x00080050                __exception_external_interrupt
                0x000800f9                __default_vsr_dummy

.rodata         0x000800fc      0x441
 *(.rodata*)
 .rodata        0x000800fc       0x30 objs_JN5164/CardReader.o
 .rodata.str1.1
                0x0008012c       0x19 objs_JN5164/CardReader.o
 .rodata.str1.1
                0x00080145       0x11 /cygdrive/c/TWESDK/Wks_ToCoNet/CardReader/../../Wks_libToCoNet/libToCoNet/lib/libToCoNet_JN5164.a(ToCoNet_mod_Tx.o)
 *fill*         0x00080156        0x2 00
 .rodata.asStateFuncTbl
                0x00080158       0x38 /cygdrive/c/TWESDK/Wks_ToCoNet/CardReader/../../Wks_libToCoNet/libToCoNet/lib/libToCoNet_JN5164.a(ToCoNet_mod_Tx.o)
 .rodata.au8ToCoNetVersionInfo
                0x00080190        0xc /cygdrive/c/TWESDK/Wks_ToCoNet/CardReader/../../Wks_libToCoNet/libToCoNet/lib/libToCoNet_JN5164.a(Version.o)
                0x00080190                _au8ToCoNetVersionInfo
 .rodata.str1.1
                0x0008019c       0x11 /cygdrive/c/TWESDK/Wks_ToCoNet/CardReader/../../Wks_libToCoNet/libToCoNet/lib/libToCoNetExt_JN5164.a(AppStart.o)
 .rodata        0x000801ad       0x11 /cygdrive/c/TWESDK/Wks_ToCoNet/CardReader/../../Wks_libToCoNet/libToCoNet/lib/libToCoNetExt_JN5164.a(AppStart.o)
 .rodata.au8k.5340
                0x000801be       0x20 /cygdrive/c/TWESDK/Wks_ToCoNet/CardReader/../../Wks_libToCoNet/libToCoNet/lib/libToCoNetExt_JN5164.a(AppStart.o)
 .rodata.au8k.5378
                0x000801de       0x20 /cygdrive/c/TWESDK/Wks_ToCoNet/CardReader/../../Wks_libToCoNet/libToCoNet/lib/libToCoNetExt_JN5164.a(AppStart.o)
 .rodata.str1.1
                0x000801fe       0x11 /cygdrive/c/TWESDK/Wks_ToCoNet/CardReader/../../Wks_libToCoNet/libToCoNet/lib/libToCoNetExt_JN5164.a(mac.o)
 *fill*         0x0008020f        0x1 00
 .rodata.u32MacHigh_TOCOS
                0x00080210        0x4 /cygdrive/c/TWESDK/Wks_ToCoNet/CardReader/../../Wks_libToCoNet/libToCoNet/lib/libToCoNetExt_JN5164.a(mac.o)
                0x00080210                _u32MacHigh_TOCOS
 .rodata.u32MacLow_TOCOS
                0x00080214        0x4 /cygdrive/c/TWESDK/Wks_ToCoNet/CardReader/../../Wks_libToCoNet/libToCoNet/lib/libToCoNetExt_JN5164.a(mac.o)
                0x00080214                _u32MacLow_TOCOS
 .rodata.u8CRCTable
                0x00080218      0x100 /cygdrive/c/TWESDK/Wks_ToCoNet/CardReader/../../Wks_libToCoNet/libToCoNet/lib/libToCoNetUtils_JN5164.a(ccitt8.o)
 .rodata.str1.1
                0x00080318        0x7 /cygdrive/c/TWESDK/Wks_ToCoNet/CardReader/../../Wks_libToCoNet/libToCoNet/lib/libToCoNetUtils_JN5164.a(fprintf.o)
 *fill*         0x0008031f        0x1 00
 .rodata.s_sPibInit
                0x00080320       0x18 /cygdrive/c/TWESDK/516x/Components/Library/libMac_JN516x.a(mac_pib_mlme.o)
 .rodata.aeXcvPhyEvtToScanEvt.4240
                0x00080338       0x18 /cygdrive/c/TWESDK/516x/Components/Library/libMac_JN516x.a(mac_scan.o)
 .rodata.aeXcvBbcEvtToScanEvt.4230
                0x00080350        0xa /cygdrive/c/TWESDK/516x/Components/Library/libMac_JN516x.a(mac_scan.o)
 .rodata.s_atScanEvtST
                0x0008035a       0x31 /cygdrive/c/TWESDK/516x/Components/Library/libMac_JN516x.a(mac_scan.o)
 *fill*         0x0008038b        0x1 00
 .rodata.s_aprScanHandleEvt
                0x0008038c       0x30 /cygdrive/c/TWESDK/516x/Components/Library/libMac_JN516x.a(mac_scan.o)
 .rodata.psTAMcontext
                0x000803bc        0x4 /cygdrive/c/TWESDK/516x/Components/Library/libMac_JN516x.a(TAM.o)
                0x000803bc                _psTAMcontext
 .rodata.psTamMacContext
                0x000803c0        0x4 /cygdrive/c/TWESDK/516x/Components/Library/libMac_JN516x.a(TAM.o)
                0x000803c0                _psTamMacContext
 .rodata.psTamXcvContext
                0x000803c4        0x4 /cygdrive/c/TWESDK/516x/Components/Library/libMac_JN516x.a(TAM.o)
                0x000803c4                _psTamXcvContext
 .rodata.au8XcvToTAMevent.4757
                0x000803c8        0xa /cygdrive/c/TWESDK/516x/Components/Library/libMac_JN516x.a(TAM.o)
 .rodata.au8HeaderSize.4215
                0x000803d2        0xe /cygdrive/c/TWESDK/516x/Components/Library/libMac_JN516x.a(TAMcommon.o)
 .rodata.apvActionCalls
                0x000803e0       0x88 /cygdrive/c/TWESDK/516x/Components/Library/libMac_JN516x.a(TAMevent.o)
                0x000803e0                _apvActionCalls
 .rodata.au8StateActions
                0x00080468       0x8c /cygdrive/c/TWESDK/516x/Components/Library/libMac_JN516x.a(TAMevent.o)
                0x00080468                _au8StateActions
 .rodata.au8SizeInc.4433
                0x000804f4        0x9 /cygdrive/c/TWESDK/516x/Components/Library/libMac_JN516x.a(TAMsecurity.o)
 .rodata.au8MICLenLUT.3714
                0x000804fd        0x4 /cygdrive/c/TWESDK/516x/Components/Library/libMac_JN516x.a(TAMsecurity.o)
 .rodata.au8FlashWaitStates32MXO
                0x00080501        0x8 /cygdrive/c/TWESDK/516x/Components/Library/libHardwareApi_JN516x.a(AHI_System.o)
 .rodata.au8FlashWaitStatesHSRCO
                0x00080509        0x8 /cygdrive/c/TWESDK/516x/Components/Library/libHardwareApi_JN516x.a(AHI_System.o)
 *fill*         0x00080511        0x3 00
 .rodata.au32TimerBaseAddress
                0x00080514       0x14 /cygdrive/c/TWESDK/516x/Components/Library/libHardwareApi_JN516x.a(AHI_Timer.o)
 .rodata.au32UartAddrOffset
                0x00080528        0x8 /cygdrive/c/TWESDK/516x/Components/Library/libHardwareApi_JN516x.a(AHI_Uart.o)
                0x00080528                _au32UartAddrOffset
 .rodata.au8dataSizeTable
                0x00080530        0xd /cygdrive/c/TWESDK/516x/Components/Library/libAes_JN516x.a(AEScoprocessorAPI.o)
                0x00080530                _au8dataSizeTable

.text           0x00080540     0xb3ee
 *(.text*)
 .text.calcDCS  0x00080540       0x26 objs_JN5164/CardReader.o
 .text.writeSerial
                0x00080566       0x2d objs_JN5164/CardReader.o
 .text.cbToCoNet_vNwkEvent
                0x00080593        0x3 objs_JN5164/CardReader.o
                0x00080593                _cbToCoNet_vNwkEvent
 .text.cbToCoNet_vRxEvent
                0x00080596        0x3 objs_JN5164/CardReader.o
                0x00080596                _cbToCoNet_vRxEvent
 .text.cbToCoNet_vTxEvent
                0x00080599        0x3 objs_JN5164/CardReader.o
                0x00080599                _cbToCoNet_vTxEvent
 .text.cbToCoNet_u8HwInt
                0x0008059c        0x5 objs_JN5164/CardReader.o
                0x0008059c                _cbToCoNet_u8HwInt
 .text.cbToCoNet_vHwEvent
                0x000805a1       0x6c objs_JN5164/CardReader.o
                0x000805a1                _cbToCoNet_vHwEvent
 .text.vInitHardware
                0x0008060d       0xbe objs_JN5164/CardReader.o
 .text.cbAppWarmStart
                0x000806cb       0x4a objs_JN5164/CardReader.o
                0x000806cb                _cbAppWarmStart
 .text.delaym   0x00080715        0x6 objs_JN5164/CardReader.o
 .text.flushSerial
                0x0008071b        0xc objs_JN5164/CardReader.o
 .text.cancel   0x00080727       0x22 objs_JN5164/CardReader.o
 .text.readSerial
                0x00080749       0x65 objs_JN5164/CardReader.o
 .text.rwCommand
                0x000807ae      0x163 objs_JN5164/CardReader.o
 .text.rcsRfOff
                0x00080911       0x4b objs_JN5164/CardReader.o
                0x00080911                _rcsRfOff
 .text.rcsPollingFeliCa
                0x0008095c       0x87 objs_JN5164/CardReader.o
                0x0008095c                _rcsPollingFeliCa
 .text.cbToCoNet_vMain
                0x000809e3       0x58 objs_JN5164/CardReader.o
                0x000809e3                _cbToCoNet_vMain
 .text.rcsInitDevice
                0x00080a3b       0xb7 objs_JN5164/CardReader.o
                0x00080a3b                _rcsInitDevice
 .text.cbAppColdStart
                0x00080af2       0x81 objs_JN5164/CardReader.o
                0x00080af2                _cbAppColdStart
 .text.ToCoNet_vDebugInit
                0x00080b73        0x9 /cygdrive/c/TWESDK/Wks_ToCoNet/CardReader/../../Wks_libToCoNet/libToCoNet/lib/libToCoNet_JN5164.a(ToCoNet_main.o)
                0x00080b73                _ToCoNet_vDebugInit
 .text.ToCoNet_vDebugLevel
                0x00080b7c        0x9 /cygdrive/c/TWESDK/Wks_ToCoNet/CardReader/../../Wks_libToCoNet/libToCoNet/lib/libToCoNet_JN5164.a(ToCoNet_main.o)
                0x00080b7c                _ToCoNet_vDebugLevel
 .text._ToCoNet_bRaisePanic
                0x00080b85       0x3b /cygdrive/c/TWESDK/Wks_ToCoNet/CardReader/../../Wks_libToCoNet/libToCoNet/lib/libToCoNet_JN5164.a(ToCoNet_main.o)
                0x00080b85                __ToCoNet_bRaisePanic
 .text.ToCoNet_vMacStart
                0x00080bc0       0x11 /cygdrive/c/TWESDK/Wks_ToCoNet/CardReader/../../Wks_libToCoNet/libToCoNet/lib/libToCoNet_JN5164.a(ToCoNet_main.o)
                0x00080bc0                _ToCoNet_vMacStart
 .text.ToCoNet_vMain
                0x00080bd1      0x26c /cygdrive/c/TWESDK/Wks_ToCoNet/CardReader/../../Wks_libToCoNet/libToCoNet/lib/libToCoNet_JN5164.a(ToCoNet_main.o)
                0x00080bd1                _ToCoNet_vMain
 .text.vProcessEvCoreMac
                0x00080e3d       0x7a /cygdrive/c/TWESDK/Wks_ToCoNet/CardReader/../../Wks_libToCoNet/libToCoNet/lib/libToCoNet_JN5164.a(ToCoNet_main.o)
                0x00080e3d                _vProcessEvCoreMac
 .text.ToCoNet_vStart
                0x00080eb7      0x3e2 /cygdrive/c/TWESDK/Wks_ToCoNet/CardReader/../../Wks_libToCoNet/libToCoNet/lib/libToCoNet_JN5164.a(ToCoNet_main.o)
                0x00080eb7                _ToCoNet_vStart
 .text.ToCoNet_vInit
                0x00081299      0x135 /cygdrive/c/TWESDK/Wks_ToCoNet/CardReader/../../Wks_libToCoNet/libToCoNet/lib/libToCoNet_JN5164.a(ToCoNet_main.o)
                0x00081299                _ToCoNet_vInit
 .text.u8HwEventHandler
                0x000813ce       0x27 /cygdrive/c/TWESDK/Wks_ToCoNet/CardReader/../../Wks_libToCoNet/libToCoNet/lib/libToCoNet_JN5164.a(ToCoNet_main.o)
 .text.ToCoNet_u32GetVersion
                0x000813f5       0x21 /cygdrive/c/TWESDK/Wks_ToCoNet/CardReader/../../Wks_libToCoNet/libToCoNet/lib/libToCoNet_JN5164.a(ToCoNet_utils.o)
                0x000813f5                _ToCoNet_u32GetVersion
 .text.ToCoNet_u32GetRand
                0x00081416       0x65 /cygdrive/c/TWESDK/Wks_ToCoNet/CardReader/../../Wks_libToCoNet/libToCoNet/lib/libToCoNet_JN5164.a(ToCoNet_utils.o)
                0x00081416                _ToCoNet_u32GetRand
 .text.ToCoNet_vReg_mod_Tx_Standard
                0x0008147b       0x1d /cygdrive/c/TWESDK/Wks_ToCoNet/CardReader/../../Wks_libToCoNet/libToCoNet/lib/libToCoNet_JN5164.a(ToCoNet_mod_Tx.o)
                0x0008147b                _ToCoNet_vReg_mod_Tx_Standard
 .text.vProcessEvCoreTx
                0x00081498       0x67 /cygdrive/c/TWESDK/Wks_ToCoNet/CardReader/../../Wks_libToCoNet/libToCoNet/lib/libToCoNet_JN5164.a(ToCoNet_mod_Tx.o)
 .text.vHnd_E_STATE_FINISH_TX_SUCCESS
                0x000814ff       0x9b /cygdrive/c/TWESDK/Wks_ToCoNet/CardReader/../../Wks_libToCoNet/libToCoNet/lib/libToCoNet_JN5164.a(ToCoNet_mod_Tx.o)
 .text.vHnd_E_STATE_WAIT_TX
                0x0008159a       0x71 /cygdrive/c/TWESDK/Wks_ToCoNet/CardReader/../../Wks_libToCoNet/libToCoNet/lib/libToCoNet_JN5164.a(ToCoNet_mod_Tx.o)
 .text.vHnd_E_STATE_PREPARE_TX
                0x0008160b      0x160 /cygdrive/c/TWESDK/Wks_ToCoNet/CardReader/../../Wks_libToCoNet/libToCoNet/lib/libToCoNet_JN5164.a(ToCoNet_mod_Tx.o)
 .text.vHnd_E_STATE_IDLE
                0x0008176b       0x49 /cygdrive/c/TWESDK/Wks_ToCoNet/CardReader/../../Wks_libToCoNet/libToCoNet/lib/libToCoNet_JN5164.a(ToCoNet_mod_Tx.o)
 .text.vHnd_E_STATE_RUNNING
                0x000817b4      0x202 /cygdrive/c/TWESDK/Wks_ToCoNet/CardReader/../../Wks_libToCoNet/libToCoNet/lib/libToCoNet_JN5164.a(ToCoNet_mod_Tx.o)
 .text.vHnd_E_STATE_FINISH_TX_FAIL
                0x000819b6       0xc2 /cygdrive/c/TWESDK/Wks_ToCoNet/CardReader/../../Wks_libToCoNet/libToCoNet/lib/libToCoNet_JN5164.a(ToCoNet_mod_Tx.o)
 .text.ToCoNet_vReg_mod_TxRxQueueMid
                0x00081a78       0x84 /cygdrive/c/TWESDK/Wks_ToCoNet/CardReader/../../Wks_libToCoNet/libToCoNet/lib/libToCoNet_JN5164.a(ToCoNet_mod_TxRxQueue.o)
                0x00081a78                _ToCoNet_vReg_mod_TxRxQueueMid
 .text.ToCoNet_vRxProc_App
                0x00081afc       0x81 /cygdrive/c/TWESDK/Wks_ToCoNet/CardReader/../../Wks_libToCoNet/libToCoNet/lib/libToCoNet_JN5164.a(ToCoNet_mod_Nwk_Common.o)
                0x00081afc                _ToCoNet_vRxProc_App
 .text.ToCoNet_vRxProc_Mod
                0x00081b7d       0x49 /cygdrive/c/TWESDK/Wks_ToCoNet/CardReader/../../Wks_libToCoNet/libToCoNet/lib/libToCoNet_JN5164.a(ToCoNet_mod_Nwk_Common.o)
                0x00081b7d                _ToCoNet_vRxProc_Mod
 .text.ToCoNet_ChMgr_bCh_Reconfig
                0x00081bc6       0x68 /cygdrive/c/TWESDK/Wks_ToCoNet/CardReader/../../Wks_libToCoNet/libToCoNet/lib/libToCoNet_JN5164.a(ToCoNet_mod_Channel_Mgr.o)
                0x00081bc6                _ToCoNet_ChMgr_bCh_Reconfig
 .text.ToCoNet_ChMgr_vCh_TxFin
                0x00081c2e       0x30 /cygdrive/c/TWESDK/Wks_ToCoNet/CardReader/../../Wks_libToCoNet/libToCoNet/lib/libToCoNet_JN5164.a(ToCoNet_mod_Channel_Mgr.o)
                0x00081c2e                _ToCoNet_ChMgr_vCh_TxFin
 .text.ToCoNet_ChMgr_bCh_OnTx
                0x00081c5e       0x6d /cygdrive/c/TWESDK/Wks_ToCoNet/CardReader/../../Wks_libToCoNet/libToCoNet/lib/libToCoNet_JN5164.a(ToCoNet_mod_Channel_Mgr.o)
                0x00081c5e                _ToCoNet_ChMgr_bCh_OnTx
 .text.vFifoInit
                0x00081ccb       0x14 /cygdrive/c/TWESDK/Wks_ToCoNet/CardReader/../../Wks_libToCoNet/libToCoNet/lib/libToCoNet_JN5164.a(AppQueueApi_ToCoNet.o)
 .text.pvFifoPull
                0x00081cdf       0x23 /cygdrive/c/TWESDK/Wks_ToCoNet/CardReader/../../Wks_libToCoNet/libToCoNet/lib/libToCoNet_JN5164.a(AppQueueApi_ToCoNet.o)
 .text.psAppQApiGetMcpsBuffer
                0x00081d02        0xc /cygdrive/c/TWESDK/Wks_ToCoNet/CardReader/../../Wks_libToCoNet/libToCoNet/lib/libToCoNet_JN5164.a(AppQueueApi_ToCoNet.o)
 .text.psAppQApiGetMlmeBuffer
                0x00081d0e        0xc /cygdrive/c/TWESDK/Wks_ToCoNet/CardReader/../../Wks_libToCoNet/libToCoNet/lib/libToCoNet_JN5164.a(AppQueueApi_ToCoNet.o)
 .text.psAppQApiReadHwIndT
                0x00081d1a        0xc /cygdrive/c/TWESDK/Wks_ToCoNet/CardReader/../../Wks_libToCoNet/libToCoNet/lib/libToCoNet_JN5164.a(AppQueueApi_ToCoNet.o)
                0x00081d1a                _psAppQApiReadHwIndT
 .text.psAppQApiReadMcpsIndT
                0x00081d26        0xc /cygdrive/c/TWESDK/Wks_ToCoNet/CardReader/../../Wks_libToCoNet/libToCoNet/lib/libToCoNet_JN5164.a(AppQueueApi_ToCoNet.o)
                0x00081d26                _psAppQApiReadMcpsIndT
 .text.psAppQApiReadMlmeIndT
                0x00081d32        0xc /cygdrive/c/TWESDK/Wks_ToCoNet/CardReader/../../Wks_libToCoNet/libToCoNet/lib/libToCoNet_JN5164.a(AppQueueApi_ToCoNet.o)
                0x00081d32                _psAppQApiReadMlmeIndT
 .text.bFifoPush
                0x00081d3e       0x28 /cygdrive/c/TWESDK/Wks_ToCoNet/CardReader/../../Wks_libToCoNet/libToCoNet/lib/libToCoNet_JN5164.a(AppQueueApi_ToCoNet.o)
 .text.vAppQApiPostMcps
                0x00081d66       0x1e /cygdrive/c/TWESDK/Wks_ToCoNet/CardReader/../../Wks_libToCoNet/libToCoNet/lib/libToCoNet_JN5164.a(AppQueueApi_ToCoNet.o)
 .text.vAppQApiPostMlme
                0x00081d84       0x22 /cygdrive/c/TWESDK/Wks_ToCoNet/CardReader/../../Wks_libToCoNet/libToCoNet/lib/libToCoNet_JN5164.a(AppQueueApi_ToCoNet.o)
 .text.vAppQApiReturnHwIndBufferT
                0x00081da6        0xe /cygdrive/c/TWESDK/Wks_ToCoNet/CardReader/../../Wks_libToCoNet/libToCoNet/lib/libToCoNet_JN5164.a(AppQueueApi_ToCoNet.o)
                0x00081da6                _vAppQApiReturnHwIndBufferT
 .text.vAppQApiReturnMcpsIndBufferT
                0x00081db4        0xe /cygdrive/c/TWESDK/Wks_ToCoNet/CardReader/../../Wks_libToCoNet/libToCoNet/lib/libToCoNet_JN5164.a(AppQueueApi_ToCoNet.o)
                0x00081db4                _vAppQApiReturnMcpsIndBufferT
 .text.vAppQApiReturnMlmeIndBufferT
                0x00081dc2        0xe /cygdrive/c/TWESDK/Wks_ToCoNet/CardReader/../../Wks_libToCoNet/libToCoNet/lib/libToCoNet_JN5164.a(AppQueueApi_ToCoNet.o)
                0x00081dc2                _vAppQApiReturnMlmeIndBufferT
 .text.u32AppQApiInitT
                0x00081dd0      0x18f /cygdrive/c/TWESDK/Wks_ToCoNet/CardReader/../../Wks_libToCoNet/libToCoNet/lib/libToCoNet_JN5164.a(AppQueueApi_ToCoNet.o)
                0x00081dd0                _u32AppQApiInitT
 .text.vAppQApiPostHwIntT
                0x00081f5f       0x6e /cygdrive/c/TWESDK/Wks_ToCoNet/CardReader/../../Wks_libToCoNet/libToCoNet/lib/libToCoNet_JN5164.a(AppQueueApi_ToCoNet.o)
 .text.u32AppQApiInitNetwork
                0x00081fcd       0x22 /cygdrive/c/TWESDK/Wks_ToCoNet/CardReader/../../Wks_libToCoNet/libToCoNet/lib/libToCoNet_JN5164.a(AppQueueApi_ToCoNet.o)
                0x00081fcd                _u32AppQApiInitNetwork
 .text.PRSEV_u8Register
                0x00081fef       0x32 /cygdrive/c/TWESDK/Wks_ToCoNet/CardReader/../../Wks_libToCoNet/libToCoNet/lib/libToCoNet_JN5164.a(ToCoNet_event.o)
                0x00081fef                _PRSEV_u8Register
 .text.PRSEV_vSetStateAll
                0x00082021       0x3b /cygdrive/c/TWESDK/Wks_ToCoNet/CardReader/../../Wks_libToCoNet/libToCoNet/lib/libToCoNet_JN5164.a(ToCoNet_event.o)
                0x00082021                _PRSEV_vSetStateAll
 .text.PRSEV_vSetState
                0x0008205c       0x10 /cygdrive/c/TWESDK/Wks_ToCoNet/CardReader/../../Wks_libToCoNet/libToCoNet/lib/libToCoNet_JN5164.a(ToCoNet_event.o)
                0x0008205c                _PRSEV_vSetState
 .text.PRSEV_vProcessEv_core
                0x0008206c       0x8f /cygdrive/c/TWESDK/Wks_ToCoNet/CardReader/../../Wks_libToCoNet/libToCoNet/lib/libToCoNet_JN5164.a(ToCoNet_event.o)
 .text.PRSEV_vProcessEvPost
                0x000820fb       0x35 /cygdrive/c/TWESDK/Wks_ToCoNet/CardReader/../../Wks_libToCoNet/libToCoNet/lib/libToCoNet_JN5164.a(ToCoNet_event.o)
                0x000820fb                _PRSEV_vProcessEvPost
 .text._PRSEV_vProcessEv
                0x00082130       0x16 /cygdrive/c/TWESDK/Wks_ToCoNet/CardReader/../../Wks_libToCoNet/libToCoNet/lib/libToCoNet_JN5164.a(ToCoNet_event.o)
                0x00082130                __PRSEV_vProcessEv
 .text._PRSEV_vProcessEvSingle
                0x00082146       0x14 /cygdrive/c/TWESDK/Wks_ToCoNet/CardReader/../../Wks_libToCoNet/libToCoNet/lib/libToCoNet_JN5164.a(ToCoNet_event.o)
                0x00082146                __PRSEV_vProcessEvSingle
 .text._PRSEV_vProcessEvSingleH
                0x0008215a       0x16 /cygdrive/c/TWESDK/Wks_ToCoNet/CardReader/../../Wks_libToCoNet/libToCoNet/lib/libToCoNet_JN5164.a(ToCoNet_event.o)
                0x0008215a                __PRSEV_vProcessEvSingleH
 .text.ToCoNet_Event_StateExec
                0x00082170       0x31 /cygdrive/c/TWESDK/Wks_ToCoNet/CardReader/../../Wks_libToCoNet/libToCoNet/lib/libToCoNet_JN5164.a(ToCoNet_event.o)
                0x00082170                _ToCoNet_Event_StateExec
 .text.PRSEV_vInit
                0x000821a1       0x4d /cygdrive/c/TWESDK/Wks_ToCoNet/CardReader/../../Wks_libToCoNet/libToCoNet/lib/libToCoNet_JN5164.a(ToCoNet_event.o)
                0x000821a1                _PRSEV_vInit
 .text._ToCoNet_bRfChChannel
                0x000821ee       0xaa /cygdrive/c/TWESDK/Wks_ToCoNet/CardReader/../../Wks_libToCoNet/libToCoNet/lib/libToCoNetExt_JN5164.a(AppStart.o)
                0x000821ee                __ToCoNet_bRfChChannel
 .text.AppWarmStart
                0x00082298       0x9d /cygdrive/c/TWESDK/Wks_ToCoNet/CardReader/../../Wks_libToCoNet/libToCoNet/lib/libToCoNetExt_JN5164.a(AppStart.o)
                0x00082298                _AppWarmStart
 .text._ToCoNet_vMacInit
                0x00082335       0x2c /cygdrive/c/TWESDK/Wks_ToCoNet/CardReader/../../Wks_libToCoNet/libToCoNet/lib/libToCoNetExt_JN5164.a(AppStart.o)
                0x00082335                __ToCoNet_vMacInit
 .text._ToCoNet_vRfConfig
                0x00082361       0xe3 /cygdrive/c/TWESDK/Wks_ToCoNet/CardReader/../../Wks_libToCoNet/libToCoNet/lib/libToCoNetExt_JN5164.a(AppStart.o)
                0x00082361                __ToCoNet_vRfConfig
 .text.AppColdStart
                0x00082444      0x4d7 /cygdrive/c/TWESDK/Wks_ToCoNet/CardReader/../../Wks_libToCoNet/libToCoNet/lib/libToCoNetExt_JN5164.a(AppStart.o)
                0x00082444                _AppColdStart
 .text.ToCoNet_u32GetSerialOnBoot
                0x0008291b       0x37 /cygdrive/c/TWESDK/Wks_ToCoNet/CardReader/../../Wks_libToCoNet/libToCoNet/lib/libToCoNetExt_JN5164.a(getMacAddr.o)
                0x0008291b                _ToCoNet_u32GetSerialOnBoot
 .text.Mac_bRxQueueReg
                0x00082952       0x34 /cygdrive/c/TWESDK/Wks_ToCoNet/CardReader/../../Wks_libToCoNet/libToCoNet/lib/libToCoNetExt_JN5164.a(mac.o)
                0x00082952                _Mac_bRxQueueReg
 .text.Mac_vSetHighDataRate
                0x00082986        0x3 /cygdrive/c/TWESDK/Wks_ToCoNet/CardReader/../../Wks_libToCoNet/libToCoNet/lib/libToCoNetExt_JN5164.a(mac.o)
                0x00082986                _Mac_vSetHighDataRate
 .text.Mac_vSetCCA
                0x00082989       0x32 /cygdrive/c/TWESDK/Wks_ToCoNet/CardReader/../../Wks_libToCoNet/libToCoNet/lib/libToCoNetExt_JN5164.a(mac.o)
                0x00082989                _Mac_vSetCCA
 .text.Mac_vSetRetry
                0x000829bb       0x1e /cygdrive/c/TWESDK/Wks_ToCoNet/CardReader/../../Wks_libToCoNet/libToCoNet/lib/libToCoNetExt_JN5164.a(mac.o)
                0x000829bb                _Mac_vSetRetry
 .text.Mac_vReset
                0x000829d9       0x20 /cygdrive/c/TWESDK/Wks_ToCoNet/CardReader/../../Wks_libToCoNet/libToCoNet/lib/libToCoNetExt_JN5164.a(mac.o)
                0x000829d9                _Mac_vReset
 .text.bDecodeAES
                0x000829f9       0xc6 /cygdrive/c/TWESDK/Wks_ToCoNet/CardReader/../../Wks_libToCoNet/libToCoNet/lib/libToCoNetExt_JN5164.a(mac.o)
                0x000829f9                _bDecodeAES
 .text.bEncodeAES
                0x00082abf       0xbb /cygdrive/c/TWESDK/Wks_ToCoNet/CardReader/../../Wks_libToCoNet/libToCoNet/lib/libToCoNetExt_JN5164.a(mac.o)
                0x00082abf                _bEncodeAES
 .text.Mac_vHandleMcpsDataInd
                0x00082b7a      0x2a0 /cygdrive/c/TWESDK/Wks_ToCoNet/CardReader/../../Wks_libToCoNet/libToCoNet/lib/libToCoNetExt_JN5164.a(mac.o)
                0x00082b7a                _Mac_vHandleMcpsDataInd
 .text.Mac_vInit
                0x00082e1a       0x41 /cygdrive/c/TWESDK/Wks_ToCoNet/CardReader/../../Wks_libToCoNet/libToCoNet/lib/libToCoNetExt_JN5164.a(mac.o)
                0x00082e1a                _Mac_vInit
 .text.Mac_bTransmit
                0x00082e5b      0x1ee /cygdrive/c/TWESDK/Wks_ToCoNet/CardReader/../../Wks_libToCoNet/libToCoNet/lib/libToCoNetExt_JN5164.a(mac.o)
                0x00082e5b                _Mac_bTransmit
 .text.bAES_CCM_Encode
                0x00083049       0x1e /cygdrive/c/TWESDK/Wks_ToCoNet/CardReader/../../Wks_libToCoNet/libToCoNet/lib/libToCoNetExt_JN5164.a(AES_CCM.o)
                0x00083049                _bAES_CCM_Encode
 .text.bAES_CCM_Decode
                0x00083067       0x1e /cygdrive/c/TWESDK/Wks_ToCoNet/CardReader/../../Wks_libToCoNet/libToCoNet/lib/libToCoNetExt_JN5164.a(AES_CCM.o)
                0x00083067                _bAES_CCM_Decode
 .text.bAES_CCM_KeyReg
                0x00083085       0x4a /cygdrive/c/TWESDK/Wks_ToCoNet/CardReader/../../Wks_libToCoNet/libToCoNet/lib/libToCoNetExt_JN5164.a(AES_CCM.o)
                0x00083085                _bAES_CCM_KeyReg
 .text.bAES_CCM_DecodeKey
                0x000830cf       0x6b /cygdrive/c/TWESDK/Wks_ToCoNet/CardReader/../../Wks_libToCoNet/libToCoNet/lib/libToCoNetExt_JN5164.a(AES_CCM.o)
                0x000830cf                _bAES_CCM_DecodeKey
 .text.bAES_CCM_EncodeKey
                0x0008313a       0x5c /cygdrive/c/TWESDK/Wks_ToCoNet/CardReader/../../Wks_libToCoNet/libToCoNet/lib/libToCoNetExt_JN5164.a(AES_CCM.o)
                0x0008313a                _bAES_CCM_EncodeKey
 .text.vInstallNoAckHandler
                0x00083196       0x2a /cygdrive/c/TWESDK/Wks_ToCoNet/CardReader/../../Wks_libToCoNet/libToCoNet/lib/libToCoNetExt_JN5164.a(no_ack_handler.o)
                0x00083196                _vInstallNoAckHandler
 .text.vHandlerPatch
                0x000831c0       0x38 /cygdrive/c/TWESDK/Wks_ToCoNet/CardReader/../../Wks_libToCoNet/libToCoNet/lib/libToCoNetExt_JN5164.a(no_ack_handler.o)
 .text.bAHI_ReadIndexSectorPage
                0x000831f8       0x4a /cygdrive/c/TWESDK/Wks_ToCoNet/CardReader/../../Wks_libToCoNet/libToCoNet/lib/libToCoNetExt_JN5164.a(AHI_FlashIndexSector.o)
                0x000831f8                _bAHI_ReadIndexSectorPage
 .text.bAHI_ReadUserData
                0x00083242       0x2a /cygdrive/c/TWESDK/Wks_ToCoNet/CardReader/../../Wks_libToCoNet/libToCoNet/lib/libToCoNetExt_JN5164.a(AHI_FlashIndexSector.o)
                0x00083242                _bAHI_ReadUserData
 .text.bAHI_ReadIndexSectorBit
                0x0008326c       0x39 /cygdrive/c/TWESDK/Wks_ToCoNet/CardReader/../../Wks_libToCoNet/libToCoNet/lib/libToCoNetExt_JN5164.a(AHI_FlashIndexSector.o)
                0x0008326c                _bAHI_ReadIndexSectorBit
 .text.u32AHI_ReadIndexSectorBits
                0x000832a5       0x37 /cygdrive/c/TWESDK/Wks_ToCoNet/CardReader/../../Wks_libToCoNet/libToCoNet/lib/libToCoNetExt_JN5164.a(AHI_FlashIndexSector.o)
                0x000832a5                _u32AHI_ReadIndexSectorBits
 .text.bAHI_ReadCustomerSettings
                0x000832dc       0x9b /cygdrive/c/TWESDK/Wks_ToCoNet/CardReader/../../Wks_libToCoNet/libToCoNet/lib/libToCoNetExt_JN5164.a(AHI_FlashIndexSector.o)
                0x000832dc                _bAHI_ReadCustomerSettings
 .text.bAHI_ReadMACID
                0x00083377       0x46 /cygdrive/c/TWESDK/Wks_ToCoNet/CardReader/../../Wks_libToCoNet/libToCoNet/lib/libToCoNetExt_JN5164.a(AHI_FlashIndexSector.o)
                0x00083377                _bAHI_ReadMACID
 .text.SERIAL_bTxQueueEmpty
                0x000833bd       0x18 /cygdrive/c/TWESDK/Wks_ToCoNet/CardReader/../../Wks_libToCoNet/libToCoNet/lib/libToCoNetUtils_JN5164.a(serial.o)
                0x000833bd                _SERIAL_bTxQueueEmpty
 .text.SERIAL_bRxQueueEmpty
                0x000833d5       0x18 /cygdrive/c/TWESDK/Wks_ToCoNet/CardReader/../../Wks_libToCoNet/libToCoNet/lib/libToCoNetUtils_JN5164.a(serial.o)
                0x000833d5                _SERIAL_bRxQueueEmpty
 .text.SERIAL_vTxReady
                0x000833ed       0x36 /cygdrive/c/TWESDK/Wks_ToCoNet/CardReader/../../Wks_libToCoNet/libToCoNet/lib/libToCoNetUtils_JN5164.a(serial.o)
                0x000833ed                _SERIAL_vTxReady
 .text.SERIAL_vFlush
                0x00083423       0x39 /cygdrive/c/TWESDK/Wks_ToCoNet/CardReader/../../Wks_libToCoNet/libToCoNet/lib/libToCoNetUtils_JN5164.a(serial.o)
                0x00083423                _SERIAL_vFlush
 .text.SERIAL_i16RxChar
                0x0008345c       0x4c /cygdrive/c/TWESDK/Wks_ToCoNet/CardReader/../../Wks_libToCoNet/libToCoNet/lib/libToCoNetUtils_JN5164.a(serial.o)
                0x0008345c                _SERIAL_i16RxChar
 .text.SERIAL_bTxChar
                0x000834a8       0x73 /cygdrive/c/TWESDK/Wks_ToCoNet/CardReader/../../Wks_libToCoNet/libToCoNet/lib/libToCoNetUtils_JN5164.a(serial.o)
                0x000834a8                _SERIAL_bTxChar
 .text.SERIAL_vInitEx
                0x0008351b       0x90 /cygdrive/c/TWESDK/Wks_ToCoNet/CardReader/../../Wks_libToCoNet/libToCoNet/lib/libToCoNetUtils_JN5164.a(serial.o)
                0x0008351b                _SERIAL_vInitEx
 .text.vRxChar  0x000835ab       0x3e /cygdrive/c/TWESDK/Wks_ToCoNet/CardReader/../../Wks_libToCoNet/libToCoNet/lib/libToCoNetUtils_JN5164.a(serial.o)
 .text.UART_vSetTxInterrupt
                0x000835e9       0x1a /cygdrive/c/TWESDK/Wks_ToCoNet/CardReader/../../Wks_libToCoNet/libToCoNet/lib/libToCoNetUtils_JN5164.a(uart.o)
                0x000835e9                _UART_vSetTxInterrupt
 .text.UART_bTxReady
                0x00083603        0xf /cygdrive/c/TWESDK/Wks_ToCoNet/CardReader/../../Wks_libToCoNet/libToCoNet/lib/libToCoNetUtils_JN5164.a(uart.o)
                0x00083603                _UART_bTxReady
 .text.UART_vTxChar
                0x00083612        0x6 /cygdrive/c/TWESDK/Wks_ToCoNet/CardReader/../../Wks_libToCoNet/libToCoNet/lib/libToCoNetUtils_JN5164.a(uart.o)
                0x00083612                _UART_vTxChar
 .text.UART_vRtsStartFlow
                0x00083618       0x22 /cygdrive/c/TWESDK/Wks_ToCoNet/CardReader/../../Wks_libToCoNet/libToCoNet/lib/libToCoNetUtils_JN5164.a(uart.o)
                0x00083618                _UART_vRtsStartFlow
 .text.UART_vRtsStopFlow
                0x0008363a       0x22 /cygdrive/c/TWESDK/Wks_ToCoNet/CardReader/../../Wks_libToCoNet/libToCoNet/lib/libToCoNetUtils_JN5164.a(uart.o)
                0x0008363a                _UART_vRtsStopFlow
 .text.UART_vInit
                0x0008365c      0x1c3 /cygdrive/c/TWESDK/Wks_ToCoNet/CardReader/../../Wks_libToCoNet/libToCoNet/lib/libToCoNetUtils_JN5164.a(uart.o)
                0x0008365c                _UART_vInit
 .text.UART_vHandleUartInterrupt
                0x0008381f       0x8e /cygdrive/c/TWESDK/Wks_ToCoNet/CardReader/../../Wks_libToCoNet/libToCoNet/lib/libToCoNetUtils_JN5164.a(uart.o)
 .text.QUEUE__vInit
                0x000838ad       0x12 /cygdrive/c/TWESDK/Wks_ToCoNet/CardReader/../../Wks_libToCoNet/libToCoNet/lib/libToCoNetUtils_JN5164.a(ByteQueue.o)
                0x000838ad                _QUEUE__vInit
 .text.QUEUE__bEmpty
                0x000838bf        0xe /cygdrive/c/TWESDK/Wks_ToCoNet/CardReader/../../Wks_libToCoNet/libToCoNet/lib/libToCoNetUtils_JN5164.a(ByteQueue.o)
                0x000838bf                _QUEUE__bEmpty
 .text.QUEUE__bFull
                0x000838cd       0x11 /cygdrive/c/TWESDK/Wks_ToCoNet/CardReader/../../Wks_libToCoNet/libToCoNet/lib/libToCoNetUtils_JN5164.a(ByteQueue.o)
                0x000838cd                _QUEUE__bFull
 .text.QUEUE__u16Count
                0x000838de        0x6 /cygdrive/c/TWESDK/Wks_ToCoNet/CardReader/../../Wks_libToCoNet/libToCoNet/lib/libToCoNetUtils_JN5164.a(ByteQueue.o)
                0x000838de                _QUEUE__u16Count
 .text.QUEUE__vFlush
                0x000838e4       0x26 /cygdrive/c/TWESDK/Wks_ToCoNet/CardReader/../../Wks_libToCoNet/libToCoNet/lib/libToCoNetUtils_JN5164.a(ByteQueue.o)
                0x000838e4                _QUEUE__vFlush
 .text.QUEUE__u8RemoveItem
                0x0008390a       0x66 /cygdrive/c/TWESDK/Wks_ToCoNet/CardReader/../../Wks_libToCoNet/libToCoNet/lib/libToCoNetUtils_JN5164.a(ByteQueue.o)
                0x0008390a                _QUEUE__u8RemoveItem
 .text.QUEUE__vAddItem
                0x00083970       0x66 /cygdrive/c/TWESDK/Wks_ToCoNet/CardReader/../../Wks_libToCoNet/libToCoNet/lib/libToCoNetUtils_JN5164.a(ByteQueue.o)
                0x00083970                _QUEUE__vAddItem
 .text.u8CCITT8
                0x000839d6       0x23 /cygdrive/c/TWESDK/Wks_ToCoNet/CardReader/../../Wks_libToCoNet/libToCoNet/lib/libToCoNetUtils_JN5164.a(ccitt8.o)
                0x000839d6                _u8CCITT8
 .text.vPrintString
                0x000839f9       0x7d /cygdrive/c/TWESDK/Wks_ToCoNet/CardReader/../../Wks_libToCoNet/libToCoNet/lib/libToCoNetUtils_JN5164.a(fprintf.o)
 .text.vPrintInteger
                0x00083a76       0xac /cygdrive/c/TWESDK/Wks_ToCoNet/CardReader/../../Wks_libToCoNet/libToCoNet/lib/libToCoNetUtils_JN5164.a(fprintf.o)
 .text.vfPrintf
                0x00083b22      0x1d4 /cygdrive/c/TWESDK/Wks_ToCoNet/CardReader/../../Wks_libToCoNet/libToCoNet/lib/libToCoNetUtils_JN5164.a(fprintf.o)
                0x00083b22                _vfPrintf
 .text.SPRINTF_bPutChar
                0x00083cf6       0x3b /cygdrive/c/TWESDK/Wks_ToCoNet/CardReader/../../Wks_libToCoNet/libToCoNet/lib/libToCoNetUtils_JN5164.a(sprintf.o)
 .text.SPRINTF_vInit128
                0x00083d31       0x30 /cygdrive/c/TWESDK/Wks_ToCoNet/CardReader/../../Wks_libToCoNet/libToCoNet/lib/libToCoNetUtils_JN5164.a(sprintf.o)
                0x00083d31                _SPRINTF_vInit128
 .text.vWait    0x00083d61       0x19 /cygdrive/c/TWESDK/Wks_ToCoNet/CardReader/../../Wks_libToCoNet/libToCoNet/lib/libToCoNetUtils_JN5164.a(utils.o)
                0x00083d61                _vWait
 .text.vTimerStart
                0x00083d7a       0xa7 /cygdrive/c/TWESDK/Wks_ToCoNet/CardReader/../../Wks_libToCoNet/libToCoNet/lib/libToCoNetUtils_JN5164.a(utils.o)
                0x00083d7a                _vTimerStart
 *fill*         0x00083e21        0x3 00
 .text.vTimerConfig
                0x00083e24      0x190 /cygdrive/c/TWESDK/Wks_ToCoNet/CardReader/../../Wks_libToCoNet/libToCoNet/lib/libToCoNetUtils_JN5164.a(utils.o)
                0x00083e24                _vTimerConfig
 .text.pvAppApiDefGetMacHandle
                0x00083fb4        0x9 /cygdrive/c/TWESDK/516x/Components/Library/libAppApi_JN516x.a(AppApi.o)
                0x00083fb4                _pvAppApiDefGetMacHandle
 .text.vAppApiDefSetPrbsSeed
                0x00083fbd       0x24 /cygdrive/c/TWESDK/516x/Components/Library/libAppApi_JN516x.a(AppApi.o)
                0x00083fbd                _vAppApiDefSetPrbsSeed
 .text.pvAppApiDefGetMacAddrLocation
                0x00083fe1        0x9 /cygdrive/c/TWESDK/516x/Components/Library/libAppApi_JN516x.a(AppApi.o)
                0x00083fe1                _pvAppApiDefGetMacAddrLocation
 .text.vAppApiDefSetInterrupts
                0x00083fea       0x3d /cygdrive/c/TWESDK/516x/Components/Library/libAppApi_JN516x.a(AppApi.o)
                0x00083fea                _vAppApiDefSetInterrupts
 .text.vAppApiDefPowerUp
                0x00084027       0x26 /cygdrive/c/TWESDK/516x/Components/Library/libAppApi_JN516x.a(AppApi.o)
                0x00084027                _vAppApiDefPowerUp
 .text.vAppApiDefStartStack
                0x0008404d       0x51 /cygdrive/c/TWESDK/516x/Components/Library/libAppApi_JN516x.a(AppApi.o)
                0x0008404d                _vAppApiDefStartStack
 .text.u32AppApiDefInit
                0x0008409e       0x5a /cygdrive/c/TWESDK/516x/Components/Library/libAppApi_JN516x.a(AppApi.o)
                0x0008409e                _u32AppApiDefInit
 .text.eAppApiDefPlmeGet
                0x000840f8       0x33 /cygdrive/c/TWESDK/516x/Components/Library/libAppApi_JN516x.a(AppApi.o)
                0x000840f8                _eAppApiDefPlmeGet
 .text.vAppApiDefMcpsRequest
                0x0008412b       0x32 /cygdrive/c/TWESDK/516x/Components/Library/libAppApi_JN516x.a(AppApi.o)
                0x0008412b                _vAppApiDefMcpsRequest
 .text.vAppApiDefMlmeRequest
                0x0008415d       0x32 /cygdrive/c/TWESDK/516x/Components/Library/libAppApi_JN516x.a(AppApi.o)
                0x0008415d                _vAppApiDefMlmeRequest
 .text.eAppApiDefPlmeSet
                0x0008418f       0x33 /cygdrive/c/TWESDK/516x/Components/Library/libAppApi_JN516x.a(AppApi.o)
                0x0008418f                _eAppApiDefPlmeSet
 .text.vAppApiDefSaveMacSettings
                0x000841c2       0x5d /cygdrive/c/TWESDK/516x/Components/Library/libAppApi_JN516x.a(AppApiSleep.o)
                0x000841c2                _vAppApiDefSaveMacSettings
 .text.vMAC_RestoreSettings
                0x0008421f       0xc8 /cygdrive/c/TWESDK/516x/Components/Library/libAppApi_JN516x.a(AppApiSleep.o)
                0x0008421f                _vMAC_RestoreSettings
 .text.vAppApiDefRestoreMacSettings
                0x000842e7       0x25 /cygdrive/c/TWESDK/516x/Components/Library/libAppApi_JN516x.a(AppApiSleep.o)
                0x000842e7                _vAppApiDefRestoreMacSettings
 .text.vSetTimer0
                0x0008430c        0xf /cygdrive/c/TWESDK/516x/Components/Library/libMac_JN516x.a(mac_main.o)
                0x0008430c                _vSetTimer0
 .text.u32GetTimer0
                0x0008431b        0x7 /cygdrive/c/TWESDK/516x/Components/Library/libMac_JN516x.a(mac_main.o)
                0x0008431b                _u32GetTimer0
 .text.MAC_vXcvPhyEvtHandler
                0x00084322       0x10 /cygdrive/c/TWESDK/516x/Components/Library/libMac_JN516x.a(mac_main.o)
                0x00084322                _MAC_vXcvPhyEvtHandler
 .text.MAC_vXcvBbcEvtHandler
                0x00084332       0x20 /cygdrive/c/TWESDK/516x/Components/Library/libMac_JN516x.a(mac_main.o)
                0x00084332                _MAC_vXcvBbcEvtHandler
 .text.mac_vInitTimer0
                0x00084352       0x20 /cygdrive/c/TWESDK/516x/Components/Library/libMac_JN516x.a(mac_main.o)
                0x00084352                _mac_vInitTimer0
 .text.MAC_pvCtor
                0x00084372       0x82 /cygdrive/c/TWESDK/516x/Components/Library/libMac_JN516x.a(mac_main.o)
                0x00084372                _MAC_pvCtor
 .text.MAC_vHandleMcpsReqRsp
                0x000843f4       0x2d /cygdrive/c/TWESDK/516x/Components/Library/libMac_JN516x.a(mac_mcps.o)
                0x000843f4                _MAC_vHandleMcpsReqRsp
 .text.vHandleTofRequest
                0x00084421       0x12 /cygdrive/c/TWESDK/516x/Components/Library/libMac_JN516x.a(mac_mlme.o)
 *fill*         0x00084433        0x1 00
 .text.MAC_vHandleMlmeReqRsp
                0x00084434       0xb4 /cygdrive/c/TWESDK/516x/Components/Library/libMac_JN516x.a(mac_mlme.o)
                0x00084434                _MAC_vHandleMlmeReqRsp
 .text.MAC_psPibGetHandle
                0x000844e8        0x7 /cygdrive/c/TWESDK/516x/Components/Library/libMac_JN516x.a(mac_pib.o)
                0x000844e8                _MAC_psPibGetHandle
 .text.MAC_vPibSetShortAddr
                0x000844ef        0xe /cygdrive/c/TWESDK/516x/Components/Library/libMac_JN516x.a(mac_pib.o)
                0x000844ef                _MAC_vPibSetShortAddr
 .text.MAC_vPibSetPanId
                0x000844fd       0x1b /cygdrive/c/TWESDK/516x/Components/Library/libMac_JN516x.a(mac_pib.o)
                0x000844fd                _MAC_vPibSetPanId
 .text.MAC_vPibSetMinBe
                0x00084518       0x1e /cygdrive/c/TWESDK/516x/Components/Library/libMac_JN516x.a(mac_pib.o)
                0x00084518                _MAC_vPibSetMinBe
 .text.MAC_vPibSetMaxCsmaBackoffs
                0x00084536       0x21 /cygdrive/c/TWESDK/516x/Components/Library/libMac_JN516x.a(mac_pib.o)
                0x00084536                _MAC_vPibSetMaxCsmaBackoffs
 .text.MAC_vSetExtAddr
                0x00084557       0x1f /cygdrive/c/TWESDK/516x/Components/Library/libMac_JN516x.a(mac_pib.o)
                0x00084557                _MAC_vSetExtAddr
 .text.MAC_vPibSetRxOnWhenIdle
                0x00084576       0x13 /cygdrive/c/TWESDK/516x/Components/Library/libMac_JN516x.a(mac_pib.o)
                0x00084576                _MAC_vPibSetRxOnWhenIdle
 .text.MAC_vPibSetPromiscuousMode
                0x00084589       0x40 /cygdrive/c/TWESDK/516x/Components/Library/libMac_JN516x.a(mac_pib.o)
                0x00084589                _MAC_vPibSetPromiscuousMode
 .text.mac_vPibCmpCoordExtAddr
                0x000845c9       0x29 /cygdrive/c/TWESDK/516x/Components/Library/libMac_JN516x.a(mac_pib_mlme.o)
                0x000845c9                _mac_vPibCmpCoordExtAddr
 .text.mac_vPibReset
                0x000845f2       0x87 /cygdrive/c/TWESDK/516x/Components/Library/libMac_JN516x.a(mac_pib_mlme.o)
                0x000845f2                _mac_vPibReset
 .text.mac_vPibSetDefaults
                0x00084679      0x12e /cygdrive/c/TWESDK/516x/Components/Library/libMac_JN516x.a(mac_pib_mlme.o)
                0x00084679                _mac_vPibSetDefaults
 .text.vPMICreset
                0x000847a7        0xd /cygdrive/c/TWESDK/516x/Components/Library/libMac_JN516x.a(mac_pmic.o)
                0x000847a7                _vPMICreset
 .text.vPMICpostFailedAssocDcfm
                0x000847b4       0x3d /cygdrive/c/TWESDK/516x/Components/Library/libMac_JN516x.a(mac_pmic.o)
                0x000847b4                _vPMICpostFailedAssocDcfm
 .text.vPMICassocReqTO_2
                0x000847f1       0x1d /cygdrive/c/TWESDK/516x/Components/Library/libMac_JN516x.a(mac_pmic.o)
 .text.vPMICassocReqFrameReceived
                0x0008480e       0x79 /cygdrive/c/TWESDK/516x/Components/Library/libMac_JN516x.a(mac_pmic.o)
                0x0008480e                _vPMICassocReqFrameReceived
 .text.vPMICdisassocReceived
                0x00084887       0x93 /cygdrive/c/TWESDK/516x/Components/Library/libMac_JN516x.a(mac_pmic.o)
                0x00084887                _vPMICdisassocReceived
 .text.vPMICassocRespFrameReceived
                0x0008491a       0x93 /cygdrive/c/TWESDK/516x/Components/Library/libMac_JN516x.a(mac_pmic.o)
                0x0008491a                _vPMICassocRespFrameReceived
 .text.vPMICassocReqTO_1
                0x000849ad       0x8c /cygdrive/c/TWESDK/516x/Components/Library/libMac_JN516x.a(mac_pmic.o)
 .text.vPMICdisassociateRequest
                0x00084a39       0xf4 /cygdrive/c/TWESDK/516x/Components/Library/libMac_JN516x.a(mac_pmic.o)
                0x00084a39                _vPMICdisassociateRequest
 .text.bPMICdisassocReqSent
                0x00084b2d       0x83 /cygdrive/c/TWESDK/516x/Components/Library/libMac_JN516x.a(mac_pmic.o)
 .text.vPMICassociateResponse
                0x00084bb0       0xd9 /cygdrive/c/TWESDK/516x/Components/Library/libMac_JN516x.a(mac_pmic.o)
                0x00084bb0                _vPMICassociateResponse
 .text.bAssocRespSent
                0x00084c89       0x1d /cygdrive/c/TWESDK/516x/Components/Library/libMac_JN516x.a(mac_pmic.o)
 .text.vPMICassociateRequest
                0x00084ca6       0xe6 /cygdrive/c/TWESDK/516x/Components/Library/libMac_JN516x.a(mac_pmic.o)
                0x00084ca6                _vPMICassociateRequest
 .text.bPMICassocReqPollSent
                0x00084d8c       0x5b /cygdrive/c/TWESDK/516x/Components/Library/libMac_JN516x.a(mac_pmic.o)
 .text.bPMICassocReqSent
                0x00084de7       0x8d /cygdrive/c/TWESDK/516x/Components/Library/libMac_JN516x.a(mac_pmic.o)
 .text.MAC_vRegisterMlmeDcfmIndCallbacks
                0x00084e74        0xc /cygdrive/c/TWESDK/516x/Components/Library/libMac_JN516x.a(mac_ind.o)
                0x00084e74                _MAC_vRegisterMlmeDcfmIndCallbacks
 .text.MAC_vRegisterMcpsDcfmIndCallbacks
                0x00084e80        0xc /cygdrive/c/TWESDK/516x/Components/Library/libMac_JN516x.a(mac_ind.o)
                0x00084e80                _MAC_vRegisterMcpsDcfmIndCallbacks
 .text.mac_psDcfmIndGetBuf
                0x00084e8c       0x23 /cygdrive/c/TWESDK/516x/Components/Library/libMac_JN516x.a(mac_ind.o)
                0x00084e8c                _mac_psDcfmIndGetBuf
 .text.mac_eDcfmIndPost
                0x00084eaf       0x21 /cygdrive/c/TWESDK/516x/Components/Library/libMac_JN516x.a(mac_ind.o)
                0x00084eaf                _mac_eDcfmIndPost
 .text.eScanHandleEvt
                0x00084ed0       0x2e /cygdrive/c/TWESDK/516x/Components/Library/libMac_JN516x.a(mac_scan.o)
                0x00084ed0                _eScanHandleEvt
 .text.vScanHandleTimer
                0x00084efe        0x8 /cygdrive/c/TWESDK/516x/Components/Library/libMac_JN516x.a(mac_scan.o)
 .text.eGenlIllegal
                0x00084f06        0x7 /cygdrive/c/TWESDK/516x/Components/Library/libMac_JN516x.a(mac_scan.o)
 .text.eGenlDontCare
                0x00084f0d        0x5 /cygdrive/c/TWESDK/516x/Components/Library/libMac_JN516x.a(mac_scan.o)
 .text.eWEnDEdDone
                0x00084f12       0x64 /cygdrive/c/TWESDK/516x/Components/Library/libMac_JN516x.a(mac_scan.o)
 .text.eWEnDTmrExpiry
                0x00084f76        0xb /cygdrive/c/TWESDK/516x/Components/Library/libMac_JN516x.a(mac_scan.o)
 .text.mac_eScanHandleXcvBbcEvt
                0x00084f81        0xf /cygdrive/c/TWESDK/516x/Components/Library/libMac_JN516x.a(mac_scan.o)
                0x00084f81                _mac_eScanHandleXcvBbcEvt
 .text.mac_eScanHandleXcvPhyEvt
                0x00084f90       0x12 /cygdrive/c/TWESDK/516x/Components/Library/libMac_JN516x.a(mac_scan.o)
                0x00084f90                _mac_eScanHandleXcvPhyEvt
 .text.vSetNextChannel
                0x00084fa2       0x4a /cygdrive/c/TWESDK/516x/Components/Library/libMac_JN516x.a(mac_scan.o)
 .text.mac_vScanHandleMlmeReq
                0x00084fec       0x98 /cygdrive/c/TWESDK/516x/Components/Library/libMac_JN516x.a(mac_scan.o)
                0x00084fec                _mac_vScanHandleMlmeReq
 .text.mac_eScanInit
                0x00085084       0x19 /cygdrive/c/TWESDK/516x/Components/Library/libMac_JN516x.a(mac_scan.o)
                0x00085084                _mac_eScanInit
 .text.vPostDcfm
                0x0008509d       0xe9 /cygdrive/c/TWESDK/516x/Components/Library/libMac_JN516x.a(mac_scan.o)
 .text.eWCoRRxDone
                0x00085186       0xb7 /cygdrive/c/TWESDK/516x/Components/Library/libMac_JN516x.a(mac_scan.o)
 .text.eGenTmrExpiry
                0x0008523d       0x4b /cygdrive/c/TWESDK/516x/Components/Library/libMac_JN516x.a(mac_scan.o)
 .text.eWEDTEdDone
                0x00085288       0x1a /cygdrive/c/TWESDK/516x/Components/Library/libMac_JN516x.a(mac_scan.o)
 .text.eGenRxHdrDone
                0x000852a2       0x13 /cygdrive/c/TWESDK/516x/Components/Library/libMac_JN516x.a(mac_scan.o)
 .text.eWONTTxDone
                0x000852b5       0x35 /cygdrive/c/TWESDK/516x/Components/Library/libMac_JN516x.a(mac_scan.o)
 .text.eWBRTTxDone
                0x000852ea       0x21 /cygdrive/c/TWESDK/516x/Components/Library/libMac_JN516x.a(mac_scan.o)
 .text.eWBcnRxDone
                0x0008530b      0x19e /cygdrive/c/TWESDK/516x/Components/Library/libMac_JN516x.a(mac_scan.o)
 .text.bSendMacCmd
                0x000854a9       0x40 /cygdrive/c/TWESDK/516x/Components/Library/libMac_JN516x.a(mac_scan.o)
 .text.eWChCChanChgd
                0x000854e9      0x170 /cygdrive/c/TWESDK/516x/Components/Library/libMac_JN516x.a(mac_scan.o)
 .text.mac_vLPBAdjustBeaconOffset
                0x00085659       0x5d /cygdrive/c/TWESDK/516x/Components/Library/libMac_JN516x.a(mac_lp.o)
                0x00085659                _mac_vLPBAdjustBeaconOffset
 .text.mac_u32LPBGetBeaconTimeout
                0x000856b6        0x9 /cygdrive/c/TWESDK/516x/Components/Library/libMac_JN516x.a(mac_lp.o)
                0x000856b6                _mac_u32LPBGetBeaconTimeout
 .text.MAC_u32ConvertFrom16uS
                0x000856bf       0x41 /cygdrive/c/TWESDK/516x/Components/Library/libMac_JN516x.a(mac_lp.o)
                0x000856bf                _MAC_u32ConvertFrom16uS
 .text.mac_vLPBSleep
                0x00085700       0x55 /cygdrive/c/TWESDK/516x/Components/Library/libMac_JN516x.a(mac_lp.o)
                0x00085700                _mac_vLPBSleep
 .text.mac_vLPBStopTimer
                0x00085755        0xe /cygdrive/c/TWESDK/516x/Components/Library/libMac_JN516x.a(mac_lp.o)
                0x00085755                _mac_vLPBStopTimer
 .text.mac_vLPBStartTimer
                0x00085763       0x88 /cygdrive/c/TWESDK/516x/Components/Library/libMac_JN516x.a(mac_lp.o)
                0x00085763                _mac_vLPBStartTimer
 .text.vMCPSframeReceived
                0x000857eb       0x5a /cygdrive/c/TWESDK/516x/Components/Library/libMac_JN516x.a(MCPS.o)
                0x000857eb                _vMCPSframeReceived
 .text.bSearchQueue
                0x00085845       0x36 /cygdrive/c/TWESDK/516x/Components/Library/libMac_JN516x.a(MCPS.o)
 .text.vTAM_MCPSpurgeRequest
                0x0008587b       0x64 /cygdrive/c/TWESDK/516x/Components/Library/libMac_JN516x.a(MCPS.o)
                0x0008587b                _vTAM_MCPSpurgeRequest
 .text.bMCPSframeTXcomplete
                0x000858df       0x5a /cygdrive/c/TWESDK/516x/Components/Library/libMac_JN516x.a(MCPS.o)
 .text.vTAM_MCPSdataRequest
                0x00085939       0x46 /cygdrive/c/TWESDK/516x/Components/Library/libMac_JN516x.a(MCPS.o)
                0x00085939                _vTAM_MCPSdataRequest
 .text.phy_ePibGet
                0x0008597f       0x34 /cygdrive/c/TWESDK/516x/Components/Library/libMac_JN516x.a(phy_pib.o)
                0x0008597f                _phy_ePibGet
 .text.u8GetPapValue
                0x000859b3       0x21 /cygdrive/c/TWESDK/516x/Components/Library/libMac_JN516x.a(phy_pib.o)
 .text.vPhySetChannel
                0x000859d4       0x77 /cygdrive/c/TWESDK/516x/Components/Library/libMac_JN516x.a(phy_pib.o)
                0x000859d4                _vPhySetChannel
 .text.phy_ePibSet
                0x00085a4b       0x90 /cygdrive/c/TWESDK/516x/Components/Library/libMac_JN516x.a(phy_pib.o)
                0x00085a4b                _phy_ePibSet
 .text.phy_vPibSetDefaults
                0x00085adb       0x2c /cygdrive/c/TWESDK/516x/Components/Library/libMac_JN516x.a(phy_pib.o)
                0x00085adb                _phy_vPibSetDefaults
 .text.bTAMinPAN
                0x00085b07       0x19 /cygdrive/c/TWESDK/516x/Components/Library/libMac_JN516x.a(TAM.o)
                0x00085b07                _bTAMinPAN
 .text.eTAMevent
                0x00085b20       0x1a /cygdrive/c/TWESDK/516x/Components/Library/libMac_JN516x.a(TAM.o)
                0x00085b20                _eTAMevent
 *fill*         0x00085b3a        0x2 00
 .text.eTAMselect
                0x00085b3c      0x154 /cygdrive/c/TWESDK/516x/Components/Library/libMac_JN516x.a(TAM.o)
                0x00085b3c                _eTAMselect
 .text.vTAM_MLMEsyncRequest
                0x00085c90       0x17 /cygdrive/c/TWESDK/516x/Components/Library/libMac_JN516x.a(TAM.o)
                0x00085c90                _vTAM_MLMEsyncRequest
 .text.vTAM_MLMEstartRequest
                0x00085ca7       0x87 /cygdrive/c/TWESDK/516x/Components/Library/libMac_JN516x.a(TAM.o)
                0x00085ca7                _vTAM_MLMEstartRequest
 .text.vTAMreset
                0x00085d2e      0x1f6 /cygdrive/c/TWESDK/516x/Components/Library/libMac_JN516x.a(TAM.o)
                0x00085d2e                _vTAMreset
 .text.vTAMCOsetCoordinator
                0x00085f24       0x29 /cygdrive/c/TWESDK/516x/Components/Library/libMac_JN516x.a(TAMCO.o)
                0x00085f24                _vTAMCOsetCoordinator
 .text.vTAMCOupdatePendingList
                0x00085f4d       0xbb /cygdrive/c/TWESDK/516x/Components/Library/libMac_JN516x.a(TAMCO.o)
                0x00085f4d                _vTAMCOupdatePendingList
 .text.vTAMCOreqTXinCAP
                0x00086008       0x2f /cygdrive/c/TWESDK/516x/Components/Library/libMac_JN516x.a(TAMCO.o)
                0x00086008                _vTAMCOreqTXinCAP
 .text.vTrySendFromDirectNoBeacon
                0x00086037       0x38 /cygdrive/c/TWESDK/516x/Components/Library/libMac_JN516x.a(TAMCO.o)
 .text.vTAMCOreqTXnoBeacon
                0x0008606f       0x18 /cygdrive/c/TWESDK/516x/Components/Library/libMac_JN516x.a(TAMCO.o)
                0x0008606f                _vTAMCOreqTXnoBeacon
 .text.vTAMCOframeRXnobeacon
                0x00086087       0x18 /cygdrive/c/TWESDK/516x/Components/Library/libMac_JN516x.a(TAMCO.o)
                0x00086087                _vTAMCOframeRXnobeacon
 .text.vTAMCOframeTXnobeacon
                0x0008609f       0x1e /cygdrive/c/TWESDK/516x/Components/Library/libMac_JN516x.a(TAMCO.o)
                0x0008609f                _vTAMCOframeTXnobeacon
 .text.vTrySendFromDirectCAP
                0x000860bd       0x25 /cygdrive/c/TWESDK/516x/Components/Library/libMac_JN516x.a(TAMCO.o)
 .text.vTAMCOframeRXcap
                0x000860e2       0x18 /cygdrive/c/TWESDK/516x/Components/Library/libMac_JN516x.a(TAMCO.o)
                0x000860e2                _vTAMCOframeRXcap
 .text.vTAMCOframeRXgoingIdle
                0x000860fa       0x1c /cygdrive/c/TWESDK/516x/Components/Library/libMac_JN516x.a(TAMCO.o)
                0x000860fa                _vTAMCOframeRXgoingIdle
 .text.vTAMCOframeTXcap
                0x00086116       0x30 /cygdrive/c/TWESDK/516x/Components/Library/libMac_JN516x.a(TAMCO.o)
                0x00086116                _vTAMCOframeTXcap
 .text.vTAMCOframeTXgoingIdle
                0x00086146       0x1b /cygdrive/c/TWESDK/516x/Components/Library/libMac_JN516x.a(TAMCO.o)
                0x00086146                _vTAMCOframeTXgoingIdle
 .text.vTAMCOint2Fired
                0x00086161       0x22 /cygdrive/c/TWESDK/516x/Components/Library/libMac_JN516x.a(TAMCO.o)
                0x00086161                _vTAMCOint2Fired
 .text.vTAMCOframeTXbeacon
                0x00086183       0xc9 /cygdrive/c/TWESDK/516x/Components/Library/libMac_JN516x.a(TAMCO.o)
                0x00086183                _vTAMCOframeTXbeacon
 .text.vTAMCOint1Fired
                0x0008624c       0xef /cygdrive/c/TWESDK/516x/Components/Library/libMac_JN516x.a(TAMCO.o)
                0x0008624c                _vTAMCOint1Fired
 .text.vTAMCOint1FiredCAP
                0x0008633b       0x7f /cygdrive/c/TWESDK/516x/Components/Library/libMac_JN516x.a(TAMCO.o)
                0x0008633b                _vTAMCOint1FiredCAP
 .text.vTAMCOstartBeacon
                0x000863ba       0x41 /cygdrive/c/TWESDK/516x/Components/Library/libMac_JN516x.a(TAMCO.o)
                0x000863ba                _vTAMCOstartBeacon
 .text.vStartStoreValues
                0x000863fb       0xbc /cygdrive/c/TWESDK/516x/Components/Library/libMac_JN516x.a(TAMCO.o)
 .text.bStartCallback
                0x000864b7       0x2f /cygdrive/c/TWESDK/516x/Components/Library/libMac_JN516x.a(TAMCO.o)
 .text.vTAMCO_MLMEstartRequest
                0x000864e6      0x11e /cygdrive/c/TWESDK/516x/Components/Library/libMac_JN516x.a(TAMCO.o)
                0x000864e6                _vTAMCO_MLMEstartRequest
 .text.vTAMCOframeStarting
                0x00086604       0x1e /cygdrive/c/TWESDK/516x/Components/Library/libMac_JN516x.a(TAMCO.o)
                0x00086604                _vTAMCOframeStarting
 .text.vTAMDEdetermineNullState
                0x00086622       0x1d /cygdrive/c/TWESDK/516x/Components/Library/libMac_JN516x.a(TAMDE.o)
                0x00086622                _vTAMDEdetermineNullState
 .text.vSetPHYfromMacValue
                0x0008663f       0x45 /cygdrive/c/TWESDK/516x/Components/Library/libMac_JN516x.a(TAMDE.o)
 .text.vTAMDEint1FiredWaitDR
                0x00086684       0x20 /cygdrive/c/TWESDK/516x/Components/Library/libMac_JN516x.a(TAMDE.o)
                0x00086684                _vTAMDEint1FiredWaitDR
 .text.vTAMDEstartSync
                0x000866a4       0x86 /cygdrive/c/TWESDK/516x/Components/Library/libMac_JN516x.a(TAMDE.o)
                0x000866a4                _vTAMDEstartSync
 .text.vTAMDE_MLMEsyncRequest
                0x0008672a       0x30 /cygdrive/c/TWESDK/516x/Components/Library/libMac_JN516x.a(TAMDE.o)
                0x0008672a                _vTAMDE_MLMEsyncRequest
 .text.vTrySendUnslotted
                0x0008675a       0x23 /cygdrive/c/TWESDK/516x/Components/Library/libMac_JN516x.a(TAMDE.o)
 .text.vDeterminePowerState
                0x0008677d       0x98 /cygdrive/c/TWESDK/516x/Components/Library/libMac_JN516x.a(TAMDE.o)
 .text.vTAMDEreqTXnullTrackingCAP
                0x00086815       0x1c /cygdrive/c/TWESDK/516x/Components/Library/libMac_JN516x.a(TAMDE.o)
                0x00086815                _vTAMDEreqTXnullTrackingCAP
 .text.vTAMDEint2FiredTrackingDR
                0x00086831       0x2b /cygdrive/c/TWESDK/516x/Components/Library/libMac_JN516x.a(TAMDE.o)
                0x00086831                _vTAMDEint2FiredTrackingDR
 .text.vTAMDEframeTXDEnull
                0x0008685c       0x28 /cygdrive/c/TWESDK/516x/Components/Library/libMac_JN516x.a(TAMDE.o)
                0x0008685c                _vTAMDEframeTXDEnull
 .text.vTAMDEframeTXtrackingCAPgts
                0x00086884       0x34 /cygdrive/c/TWESDK/516x/Components/Library/libMac_JN516x.a(TAMDE.o)
                0x00086884                _vTAMDEframeTXtrackingCAPgts
 .text.vTAMDEframeRX
                0x000868b8       0x30 /cygdrive/c/TWESDK/516x/Components/Library/libMac_JN516x.a(TAMDE.o)
                0x000868b8                _vTAMDEframeRX
 .text.vTAMDEframePreSyncReq
                0x000868e8       0x21 /cygdrive/c/TWESDK/516x/Components/Library/libMac_JN516x.a(TAMDE.o)
                0x000868e8                _vTAMDEframePreSyncReq
 .text.bSendDataRequest
                0x00086909      0x113 /cygdrive/c/TWESDK/516x/Components/Library/libMac_JN516x.a(TAMDE.o)
 .text.vTAMDEframeRXtrackingDR
                0x00086a1c       0x47 /cygdrive/c/TWESDK/516x/Components/Library/libMac_JN516x.a(TAMDE.o)
                0x00086a1c                _vTAMDEframeRXtrackingDR
 .text.vTAMDEint2FiredPollActive
                0x00086a63       0x34 /cygdrive/c/TWESDK/516x/Components/Library/libMac_JN516x.a(TAMDE.o)
                0x00086a63                _vTAMDEint2FiredPollActive
 .text.vTAMDEframeTXtrackingDR
                0x00086a97       0x6b /cygdrive/c/TWESDK/516x/Components/Library/libMac_JN516x.a(TAMDE.o)
                0x00086a97                _vTAMDEframeTXtrackingDR
 .text.vTAMDEint1FiredTracking
                0x00086b02       0x6f /cygdrive/c/TWESDK/516x/Components/Library/libMac_JN516x.a(TAMDE.o)
                0x00086b02                _vTAMDEint1FiredTracking
 .text.vTAMDEint1FiredTrackingCAPgts
                0x00086b71       0xca /cygdrive/c/TWESDK/516x/Components/Library/libMac_JN516x.a(TAMDE.o)
                0x00086b71                _vTAMDEint1FiredTrackingCAPgts
 .text.vTAMDEint1FiredTrackingBeacon
                0x00086c3b       0xa7 /cygdrive/c/TWESDK/516x/Components/Library/libMac_JN516x.a(TAMDE.o)
                0x00086c3b                _vTAMDEint1FiredTrackingBeacon
 .text.bProcessBeaconRX
                0x00086ce2       0xe6 /cygdrive/c/TWESDK/516x/Components/Library/libMac_JN516x.a(TAMDE.o)
 .text.vTAMDEframeRXsyncReq
                0x00086dc8      0x26c /cygdrive/c/TWESDK/516x/Components/Library/libMac_JN516x.a(TAMDE.o)
                0x00086dc8                _vTAMDEframeRXsyncReq
 .text.vTAMDEint1FiredSyncReq
                0x00087034       0x7b /cygdrive/c/TWESDK/516x/Components/Library/libMac_JN516x.a(TAMDE.o)
                0x00087034                _vTAMDEint1FiredSyncReq
 .text.pvMEMget
                0x000870af       0x27 /cygdrive/c/TWESDK/516x/Components/Library/libMac_JN516x.a(TAM_MEM.o)
                0x000870af                _pvMEMget
 .text.vMEMreturn
                0x000870d6       0x6a /cygdrive/c/TWESDK/516x/Components/Library/libMac_JN516x.a(TAM_MEM.o)
                0x000870d6                _vMEMreturn
 .text.vMEMreset
                0x00087140       0x70 /cygdrive/c/TWESDK/516x/Components/Library/libMac_JN516x.a(TAM_MEM.o)
                0x00087140                _vMEMreset
 .text.vMLMErxEnableConfirm
                0x000871b0       0x37 /cygdrive/c/TWESDK/516x/Components/Library/libMac_JN516x.a(TAM_MLME.o)
                0x000871b0                _vMLMErxEnableConfirm
 .text.vMLMEcommStatus
                0x000871e7       0x6e /cygdrive/c/TWESDK/516x/Components/Library/libMac_JN516x.a(TAM_MLME.o)
                0x000871e7                _vMLMEcommStatus
 .text.vMLMEcommStatusFromFrame
                0x00087255       0x47 /cygdrive/c/TWESDK/516x/Components/Library/libMac_JN516x.a(TAM_MLME.o)
                0x00087255                _vMLMEcommStatusFromFrame
 .text.vMLMEsyncLoss
                0x0008729c       0x38 /cygdrive/c/TWESDK/516x/Components/Library/libMac_JN516x.a(TAM_MLME.o)
                0x0008729c                _vMLMEsyncLoss
 .text.vMLMEbeaconNotify
                0x000872d4      0x17c /cygdrive/c/TWESDK/516x/Components/Library/libMac_JN516x.a(TAM_MLME.o)
                0x000872d4                _vMLMEbeaconNotify
 .text.vTAHsetCutOff
                0x00087450        0xa /cygdrive/c/TWESDK/516x/Components/Library/libMac_JN516x.a(TAM_TAH.o)
                0x00087450                _vTAHsetCutOff
 .text.vTAHsetSyncLock
                0x0008745a       0x18 /cygdrive/c/TWESDK/516x/Components/Library/libMac_JN516x.a(TAM_TAH.o)
                0x0008745a                _vTAHsetSyncLock
 .text.vTAHsetPhyStateDirect
                0x00087472       0x33 /cygdrive/c/TWESDK/516x/Components/Library/libMac_JN516x.a(TAM_TAH.o)
                0x00087472                _vTAHsetPhyStateDirect
 .text.vTAHsetPhyState
                0x000874a5       0x35 /cygdrive/c/TWESDK/516x/Components/Library/libMac_JN516x.a(TAM_TAH.o)
                0x000874a5                _vTAHsetPhyState
 .text.vTAIdisableInterrupt
                0x000874da       0x10 /cygdrive/c/TWESDK/516x/Components/Library/libMac_JN516x.a(TAM_TAI.o)
                0x000874da                _vTAIdisableInterrupt
 .text.vTAIsetRxEnableTime
                0x000874ea       0x1d /cygdrive/c/TWESDK/516x/Components/Library/libMac_JN516x.a(TAM_TAI.o)
                0x000874ea                _vTAIsetRxEnableTime
 .text.vTAIsetCapTime
                0x00087507       0x1d /cygdrive/c/TWESDK/516x/Components/Library/libMac_JN516x.a(TAM_TAI.o)
                0x00087507                _vTAIsetCapTime
 .text.eTATreadTXstatus
                0x00087524       0x46 /cygdrive/c/TWESDK/516x/Components/Library/libMac_JN516x.a(TAM_TAT.o)
                0x00087524                _eTATreadTXstatus
 .text.vTATgetFrameAddress
                0x0008756a       0x20 /cygdrive/c/TWESDK/516x/Components/Library/libMac_JN516x.a(TAM_TAT.o)
                0x0008756a                _vTATgetFrameAddress
 .text.vTATgetFramePayload
                0x0008758a       0x1d /cygdrive/c/TWESDK/516x/Components/Library/libMac_JN516x.a(TAM_TAT.o)
                0x0008758a                _vTATgetFramePayload
 .text.vTATsetBLE
                0x000875a7       0x3e /cygdrive/c/TWESDK/516x/Components/Library/libMac_JN516x.a(TAM_TAT.o)
                0x000875a7                _vTATsetBLE
 .text.vTATwriteAclMaterialToHardware
                0x000875e5       0x2c /cygdrive/c/TWESDK/516x/Components/Library/libMac_JN516x.a(TAM_TAT.o)
                0x000875e5                _vTATwriteAclMaterialToHardware
 .text.bIsBbcSafeForTx
                0x00087611       0x2d /cygdrive/c/TWESDK/516x/Components/Library/libMac_JN516x.a(TAM_TAT.o)
                0x00087611                _bIsBbcSafeForTx
 .text.vTATstartReceiveAt
                0x0008763e       0x1e /cygdrive/c/TWESDK/516x/Components/Library/libMac_JN516x.a(TAM_TAT.o)
                0x0008763e                _vTATstartReceiveAt
 .text.vWriteFrame
                0x0008765c       0x7d /cygdrive/c/TWESDK/516x/Components/Library/libMac_JN516x.a(TAM_TAT.o)
 .text.bTATsendFrame
                0x000876d9       0x5a /cygdrive/c/TWESDK/516x/Components/Library/libMac_JN516x.a(TAM_TAT.o)
                0x000876d9                _bTATsendFrame
 .text.bTATsendFrameAt
                0x00087733       0x48 /cygdrive/c/TWESDK/516x/Components/Library/libMac_JN516x.a(TAM_TAT.o)
                0x00087733                _bTATsendFrameAt
 .text.bTACassessBeaconForPayload
                0x0008777b       0x4c /cygdrive/c/TWESDK/516x/Components/Library/libMac_JN516x.a(TAMcommon.o)
                0x0008777b                _bTACassessBeaconForPayload
 .text.bTACframeInProgress
                0x000877c7       0x27 /cygdrive/c/TWESDK/516x/Components/Library/libMac_JN516x.a(TAMcommon.o)
                0x000877c7                _bTACframeInProgress
 .text.vTACu16ToPayloadM
                0x000877ee        0xc /cygdrive/c/TWESDK/516x/Components/Library/libMac_JN516x.a(TAMcommon.o)
                0x000877ee                _vTACu16ToPayloadM
 .text.vTACu32ToPayloadM
                0x000877fa       0x18 /cygdrive/c/TWESDK/516x/Components/Library/libMac_JN516x.a(TAMcommon.o)
                0x000877fa                _vTACu32ToPayloadM
 .text.u16TACpayloadToU16M
                0x00087812        0xf /cygdrive/c/TWESDK/516x/Components/Library/libMac_JN516x.a(TAMcommon.o)
                0x00087812                _u16TACpayloadToU16M
 .text.u32TACpayloadToU32M
                0x00087821       0x23 /cygdrive/c/TWESDK/516x/Components/Library/libMac_JN516x.a(TAMcommon.o)
                0x00087821                _u32TACpayloadToU32M
 .text.u8TACgetHeaderSize
                0x00087844       0x26 /cygdrive/c/TWESDK/516x/Components/Library/libMac_JN516x.a(TAMcommon.o)
                0x00087844                _u8TACgetHeaderSize
 .text.vTACsetTxFrameDefaults
                0x0008786a       0x2a /cygdrive/c/TWESDK/516x/Components/Library/libMac_JN516x.a(TAMcommon.o)
                0x0008786a                _vTACsetTxFrameDefaults
 .text.vTACcheckPollResponse
                0x00087894       0x37 /cygdrive/c/TWESDK/516x/Components/Library/libMac_JN516x.a(TAMcommon.o)
                0x00087894                _vTACcheckPollResponse
 .text.bUpdateTime
                0x000878cb       0x46 /cygdrive/c/TWESDK/516x/Components/Library/libMac_JN516x.a(TAMcommon.o)
 .text.vTACbuildBeacon
                0x00087911      0x257 /cygdrive/c/TWESDK/516x/Components/Library/libMac_JN516x.a(TAMcommon.o)
                0x00087911                _vTACbuildBeacon
 .text.vTACsetFramePending
                0x00087b68       0x3f /cygdrive/c/TWESDK/516x/Components/Library/libMac_JN516x.a(TAMcommon.o)
                0x00087b68                _vTACsetFramePending
 .text.vTACsetPHYfromMacValue
                0x00087ba7       0x2b /cygdrive/c/TWESDK/516x/Components/Library/libMac_JN516x.a(TAMcommon.o)
                0x00087ba7                _vTACsetPHYfromMacValue
 .text.bTACcheckPANconflict
                0x00087bd2       0xa8 /cygdrive/c/TWESDK/516x/Components/Library/libMac_JN516x.a(TAMcommon.o)
                0x00087bd2                _bTACcheckPANconflict
 .text.bTACprocessUnexpectedBeacon
                0x00087c7a       0x6d /cygdrive/c/TWESDK/516x/Components/Library/libMac_JN516x.a(TAMcommon.o)
                0x00087c7a                _bTACprocessUnexpectedBeacon
 .text.bSendSyncLoss
                0x00087ce7       0x1e /cygdrive/c/TWESDK/516x/Components/Library/libMac_JN516x.a(TAMcommon.o)
 .text.vTACinformOriginator
                0x00087d05       0x26 /cygdrive/c/TWESDK/516x/Components/Library/libMac_JN516x.a(TAMcommon.o)
                0x00087d05                _vTACinformOriginator
 .text.vTACintRXheader
                0x00087d2b       0x98 /cygdrive/c/TWESDK/516x/Components/Library/libMac_JN516x.a(TAMcommon.o)
                0x00087d2b                _vTACintRXheader
 .text.bTACprocessFrameRXcomplete
                0x00087dc3      0x231 /cygdrive/c/TWESDK/516x/Components/Library/libMac_JN516x.a(TAMcommon.o)
                0x00087dc3                _bTACprocessFrameRXcomplete
 .text.eTACprocessFrameTXcomplete
                0x00087ff4      0x17c /cygdrive/c/TWESDK/516x/Components/Library/libMac_JN516x.a(TAMcommon.o)
                0x00087ff4                _eTACprocessFrameTXcomplete
 .text.vTAMinsertEvent
                0x00088170       0x6c /cygdrive/c/TWESDK/516x/Components/Library/libMac_JN516x.a(TAMevent.o)
                0x00088170                _vTAMinsertEvent
 .text.vTAM_TxRetryTimeout
                0x000881dc        0x8 /cygdrive/c/TWESDK/516x/Components/Library/libMac_JN516x.a(TAMevent.o)
                0x000881dc                _vTAM_TxRetryTimeout
 .text.vTAM_QueueTxEvent
                0x000881e4       0x11 /cygdrive/c/TWESDK/516x/Components/Library/libMac_JN516x.a(TAMevent.o)
                0x000881e4                _vTAM_QueueTxEvent
 .text.vTAM_CancelTxRetryTimer
                0x000881f5        0xf /cygdrive/c/TWESDK/516x/Components/Library/libMac_JN516x.a(TAMevent.o)
                0x000881f5                _vTAM_CancelTxRetryTimer
 .text.vTAM_TxRetryTimer
                0x00088204       0x13 /cygdrive/c/TWESDK/516x/Components/Library/libMac_JN516x.a(TAMevent.o)
                0x00088204                _vTAM_TxRetryTimer
 .text.vTAQaddToFifo
                0x00088217       0x1a /cygdrive/c/TWESDK/516x/Components/Library/libMac_JN516x.a(TAMqueue.o)
                0x00088217                _vTAQaddToFifo
 .text.bTAQremoveFromFifo
                0x00088231       0x3d /cygdrive/c/TWESDK/516x/Components/Library/libMac_JN516x.a(TAMqueue.o)
                0x00088231                _bTAQremoveFromFifo
 .text.vTAQresetFifo
                0x0008826e        0x9 /cygdrive/c/TWESDK/516x/Components/Library/libMac_JN516x.a(TAMqueue.o)
                0x0008826e                _vTAQresetFifo
 .text.psTAQsearchFifoForHandle
                0x00088277       0x18 /cygdrive/c/TWESDK/516x/Components/Library/libMac_JN516x.a(TAMqueue.o)
                0x00088277                _psTAQsearchFifoForHandle
 .text.psTAQsearchFifo
                0x0008828f       0x46 /cygdrive/c/TWESDK/516x/Components/Library/libMac_JN516x.a(TAMqueue.o)
                0x0008828f                _psTAQsearchFifo
 .text.vDoGoOff
                0x000882d5       0x1a /cygdrive/c/TWESDK/516x/Components/Library/libMac_JN516x.a(TAMrxEnable.o)
 .text.vDoGoActive
                0x000882ef       0x28 /cygdrive/c/TWESDK/516x/Components/Library/libMac_JN516x.a(TAMrxEnable.o)
 .text.vTAM_MLMErxEnableRequest
                0x00088317       0xc8 /cygdrive/c/TWESDK/516x/Components/Library/libMac_JN516x.a(TAMrxEnable.o)
                0x00088317                _vTAM_MLMErxEnableRequest
 .text.vTAMRXEsetReceiveForPibChange
                0x000883df       0x33 /cygdrive/c/TWESDK/516x/Components/Library/libMac_JN516x.a(TAMrxEnable.o)
                0x000883df                _vTAMRXEsetReceiveForPibChange
 .text.vTAMRXEsetPhy
                0x00088412       0xb6 /cygdrive/c/TWESDK/516x/Components/Library/libMac_JN516x.a(TAMrxEnable.o)
                0x00088412                _vTAMRXEsetPhy
 .text.vTAMRXEint2Fired
                0x000884c8       0x42 /cygdrive/c/TWESDK/516x/Components/Library/libMac_JN516x.a(TAMrxEnable.o)
                0x000884c8                _vTAMRXEint2Fired
 .text.bSecurityLevelCheckingAlgorithm
                0x0008850a       0x25 /cygdrive/c/TWESDK/516x/Components/Library/libMac_JN516x.a(TAMsecurity.o)
 .text.u8TSCframeIncrease
                0x0008852f        0xf /cygdrive/c/TWESDK/516x/Components/Library/libMac_JN516x.a(TAMsecurity.o)
                0x0008852f                _u8TSCframeIncrease
 .text.vTSCsetUpwardSecurity
                0x0008853e       0x15 /cygdrive/c/TWESDK/516x/Components/Library/libMac_JN516x.a(TAMsecurity.o)
                0x0008853e                _vTSCsetUpwardSecurity
 .text.vCopyToDataFromMacAddr
                0x00088553       0x33 /cygdrive/c/TWESDK/516x/Components/Library/libMac_JN516x.a(TAMsecurity.o)
 .text.vTSCpostTransmitUpdate
                0x00088586       0x3b /cygdrive/c/TWESDK/516x/Components/Library/libMac_JN516x.a(TAMsecurity.o)
                0x00088586                _vTSCpostTransmitUpdate
 .text.vTSCsetOutgoingInfo
                0x000885c1      0x158 /cygdrive/c/TWESDK/516x/Components/Library/libMac_JN516x.a(TAMsecurity.o)
                0x000885c1                _vTSCsetOutgoingInfo
 .text.vMAC_RetrieveSecurityInfoFromFrame
                0x00088719       0x92 /cygdrive/c/TWESDK/516x/Components/Library/libMac_JN516x.a(TAMsecurity.o)
                0x00088719                _vMAC_RetrieveSecurityInfoFromFrame
 .text.MAC_bLookUpKeyDescriptor
                0x000887ab       0x7f /cygdrive/c/TWESDK/516x/Components/Library/libMac_JN516x.a(TAMsecurity.o)
 .text.bTSCgetOutgoingInfo2003
                0x0008882a       0x21 /cygdrive/c/TWESDK/516x/Components/Library/libMac_JN516x.a(TAMsecurity.o)
                0x0008882a                _bTSCgetOutgoingInfo2003
 .text.bTSCgetOutgoingInfo
                0x0008884b      0x11c /cygdrive/c/TWESDK/516x/Components/Library/libMac_JN516x.a(TAMsecurity.o)
                0x0008884b                _bTSCgetOutgoingInfo
 .text.vTSCgetIncomingInfo
                0x00088967       0xc6 /cygdrive/c/TWESDK/516x/Components/Library/libMac_JN516x.a(TAMsecurity.o)
                0x00088967                _vTSCgetIncomingInfo
 .text.bTSCcheckIncomingFrame
                0x00088a2d      0x689 /cygdrive/c/TWESDK/516x/Components/Library/libMac_JN516x.a(TAMsecurity.o)
                0x00088a2d                _bTSCcheckIncomingFrame
 .text.vTAStidyUpAfterFrameTX
                0x000890b6       0x26 /cygdrive/c/TWESDK/516x/Components/Library/libMac_JN516x.a(TAMsideways.o)
                0x000890b6                _vTAStidyUpAfterFrameTX
 .text.bTASsendCommStatusInd
                0x000890dc       0x1b /cygdrive/c/TWESDK/516x/Components/Library/libMac_JN516x.a(TAMsideways.o)
                0x000890dc                _bTASsendCommStatusInd
 .text.vTASretrieveSecurity
                0x000890f7       0x24 /cygdrive/c/TWESDK/516x/Components/Library/libMac_JN516x.a(TAMsideways.o)
                0x000890f7                _vTASretrieveSecurity
 .text.vTASretrieveFrame
                0x0008911b       0x88 /cygdrive/c/TWESDK/516x/Components/Library/libMac_JN516x.a(TAMsideways.o)
                0x0008911b                _vTASretrieveFrame
 .text.eTAStransmitRequest
                0x000891a3      0x3e3 /cygdrive/c/TWESDK/516x/Components/Library/libMac_JN516x.a(TAMsideways.o)
                0x000891a3                _eTAStransmitRequest
 .text.vTTIBLETimerExpired
                0x00089586        0xb /cygdrive/c/TWESDK/516x/Components/Library/libMac_JN516x.a(TAMtime.o)
                0x00089586                _vTTIBLETimerExpired
 .text.vTTITimer2Expired
                0x00089591        0x8 /cygdrive/c/TWESDK/516x/Components/Library/libMac_JN516x.a(TAMtime.o)
                0x00089591                _vTTITimer2Expired
 .text.vTTITimer1Expired
                0x00089599        0x8 /cygdrive/c/TWESDK/516x/Components/Library/libMac_JN516x.a(TAMtime.o)
                0x00089599                _vTTITimer1Expired
 .text.vTTITransactionTimerExpired
                0x000895a1       0x2f /cygdrive/c/TWESDK/516x/Components/Library/libMac_JN516x.a(TAMtime.o)
                0x000895a1                _vTTITransactionTimerExpired
 .text.vCmdWaitBusy
                0x000895d0        0xd /cygdrive/c/TWESDK/516x/Components/Library/libMac_JN516x.a(TAM_AES.o)
 .text.vEcbEncodeStripe
                0x000895dd       0x55 /cygdrive/c/TWESDK/516x/Components/Library/libMac_JN516x.a(TAM_AES.o)
 .text.vFromU16ToLe
                0x00089632        0xc /cygdrive/c/TWESDK/516x/Components/Library/libMac_JN516x.a(TAM_AES.o)
 .text.vFromU32ToLe
                0x0008963e       0x18 /cygdrive/c/TWESDK/516x/Components/Library/libMac_JN516x.a(TAM_AES.o)
 .text.u8TAM_AES_WriteAuxilliarySecurityHeaderIntoBuffer
                0x00089656       0x6a /cygdrive/c/TWESDK/516x/Components/Library/libMac_JN516x.a(TAM_AES.o)
                0x00089656                _u8TAM_AES_WriteAuxilliarySecurityHeaderIntoBuffer
 .text.u8Write802_15_4HeaderIntoBuffer
                0x000896c0      0x110 /cygdrive/c/TWESDK/516x/Components/Library/libMac_JN516x.a(TAM_AES.o)
 .text.vWrite802_15_4NonceIntoBuffer
                0x000897d0       0x4a /cygdrive/c/TWESDK/516x/Components/Library/libMac_JN516x.a(TAM_AES.o)
 .text.vTAM_AES_OptimisedCcmStar
                0x0008981a      0x244 /cygdrive/c/TWESDK/516x/Components/Library/libMac_JN516x.a(TAM_AES.o)
                0x0008981a                _vTAM_AES_OptimisedCcmStar
 .text.bTAM_AES_CCMstarPatch2006
                0x00089a5e       0xf4 /cygdrive/c/TWESDK/516x/Components/Library/libMac_JN516x.a(TAM_AES.o)
                0x00089a5e                _bTAM_AES_CCMstarPatch2006
 .text.bTAM_AES_CCMstarPatch
                0x00089b52       0xfe /cygdrive/c/TWESDK/516x/Components/Library/libMac_JN516x.a(TAM_AES.o)
                0x00089b52                _bTAM_AES_CCMstarPatch
 .text.MAC_u8AclFindInfo
                0x00089c50      0x118 /cygdrive/c/TWESDK/516x/Components/Library/libMac_JN516x.a(mac_acl.o)
                0x00089c50                _MAC_u8AclFindInfo
 .text.vMAC_MISCorphanReceived
                0x00089d68       0x4f /cygdrive/c/TWESDK/516x/Components/Library/libMac_JN516x.a(mac_misc.o)
                0x00089d68                _vMAC_MISCorphanReceived
 .text.vMAC_MISCpollConfirm
                0x00089db7       0x35 /cygdrive/c/TWESDK/516x/Components/Library/libMac_JN516x.a(mac_misc.o)
                0x00089db7                _vMAC_MISCpollConfirm
 .text.vMAC_MISCpollRequest
                0x00089dec       0xbe /cygdrive/c/TWESDK/516x/Components/Library/libMac_JN516x.a(mac_misc.o)
                0x00089dec                _vMAC_MISCpollRequest
 .text.vMAC_MISCorphanResponse
                0x00089eaa       0xc4 /cygdrive/c/TWESDK/516x/Components/Library/libMac_JN516x.a(mac_misc.o)
                0x00089eaa                _vMAC_MISCorphanResponse
 .text.bPollReqSent
                0x00089f6e       0x1e /cygdrive/c/TWESDK/516x/Components/Library/libMac_JN516x.a(mac_misc.o)
 .text.vUpdateRegisters
                0x00089f8c       0x4b /cygdrive/c/TWESDK/516x/Components/Library/libXcv_JN516x.a(xcv_main.o)
 .text.XCV_vCtor
                0x00089fd7      0x1ae /cygdrive/c/TWESDK/516x/Components/Library/libXcv_JN516x.a(xcv_main.o)
                0x00089fd7                _XCV_vCtor
 .text.XCV_vDevWriteIER
                0x0008a185        0xa /cygdrive/c/TWESDK/516x/Components/Library/libXcv_JN516x.a(xcv_access.o)
                0x0008a185                _XCV_vDevWriteIER
 .text.XCV_vDevRMW_IER
                0x0008a18f       0x19 /cygdrive/c/TWESDK/516x/Components/Library/libXcv_JN516x.a(xcv_access.o)
                0x0008a18f                _XCV_vDevRMW_IER
 .text.vXCV_IntHandlerBbc
                0x0008a1a8       0x62 /cygdrive/c/TWESDK/516x/Components/Library/libXcv_JN516x.a(xcv_isr.o)
                0x0008a1a8                _vXCV_IntHandlerBbc
 .text.vXCV_IntHandlerPhy
                0x0008a20a       0xab /cygdrive/c/TWESDK/516x/Components/Library/libXcv_JN516x.a(xcv_isr.o)
                0x0008a20a                _vXCV_IntHandlerPhy
 .text.bACI_CCMstar
                0x0008a2b5       0x66 /cygdrive/c/TWESDK/516x/Components/Library/libAes_JN516x.a(AEScoprocessorCCM.o)
                0x0008a2b5                _bACI_CCMstar
 .text.TSV_eInit
                0x0008a31b       0x1d /cygdrive/c/TWESDK/516x/Components/Library/libTimerServer_JN516x.a(tsv_main.o)
                0x0008a31b                _TSV_eInit
 .text.TSV_eOpen
                0x0008a338        0x8 /cygdrive/c/TWESDK/516x/Components/Library/libTimerServer_JN516x.a(tsv_main.o)
                0x0008a338                _TSV_eOpen
 .text.psRemove
                0x0008a340       0x47 /cygdrive/c/TWESDK/516x/Components/Library/libTimerServer_JN516x.a(tsv_main.o)
 .text.vExpireHead
                0x0008a387       0x31 /cygdrive/c/TWESDK/516x/Components/Library/libTimerServer_JN516x.a(tsv_main.o)
 .text.TSV_eExpireProc
                0x0008a3b8       0x2b /cygdrive/c/TWESDK/516x/Components/Library/libTimerServer_JN516x.a(tsv_main.o)
                0x0008a3b8                _TSV_eExpireProc
 .text.TSV_eStart
                0x0008a3e3       0xcf /cygdrive/c/TWESDK/516x/Components/Library/libTimerServer_JN516x.a(tsv_main.o)
                0x0008a3e3                _TSV_eStart
 .text.TSV_eStop
                0x0008a4b2       0x79 /cygdrive/c/TWESDK/516x/Components/Library/libTimerServer_JN516x.a(tsv_main.o)
                0x0008a4b2                _TSV_eStop
 .text.vAHI_IntHandlerAnalogPeriph
                0x0008a52b       0x20 /cygdrive/c/TWESDK/516x/Components/Library/libHardwareApi_JN516x.a(AHI_Analogue.o)
                0x0008a52b                _vAHI_IntHandlerAnalogPeriph
 .text.vAHI_APRegisterCallback
                0x0008a54b        0x9 /cygdrive/c/TWESDK/516x/Components/Library/libHardwareApi_JN516x.a(AHI_Analogue.o)
                0x0008a54b                _vAHI_APRegisterCallback
 .text.vAHI_BrownOutConfigure
                0x0008a554       0x4e /cygdrive/c/TWESDK/516x/Components/Library/libHardwareApi_JN516x.a(AHI_BrownOut.o)
                0x0008a554                _vAHI_BrownOutConfigure
 .text.vAHI_DioSetDirection
                0x0008a5a2       0x14 /cygdrive/c/TWESDK/516x/Components/Library/libHardwareApi_JN516x.a(AHI_Dio.o)
                0x0008a5a2                _vAHI_DioSetDirection
 .text.vAHI_DioSetOutput
                0x0008a5b6       0x14 /cygdrive/c/TWESDK/516x/Components/Library/libHardwareApi_JN516x.a(AHI_Dio.o)
                0x0008a5b6                _vAHI_DioSetOutput
 .text.u32AHI_DioWakeStatus
                0x0008a5ca       0x11 /cygdrive/c/TWESDK/516x/Components/Library/libHardwareApi_JN516x.a(AHI_Dio.o)
                0x0008a5ca                _u32AHI_DioWakeStatus
 .text.vAHI_DioSetPullup
                0x0008a5db       0x20 /cygdrive/c/TWESDK/516x/Components/Library/libHardwareApi_JN516x.a(AHI_Dio.o)
                0x0008a5db                _vAHI_DioSetPullup
 .text.u32AHI_Init
                0x0008a5fb       0xc5 /cygdrive/c/TWESDK/516x/Components/Library/libHardwareApi_JN516x.a(AHI_Init.o)
                0x0008a5fb                _u32AHI_Init
 .text          0x0008a6c0       0x27 /cygdrive/c/TWESDK/516x/Components/Library/libHardwareApi_JN516x.a(AHI_Interrupt.o)
                0x0008a6de                _vAHI_InterruptSetActivePriorityLevel
                0x0008a6c0                _vAHI_InterruptSetPriority
 .text.vAHI_SwReset
                0x0008a6e7        0x9 /cygdrive/c/TWESDK/516x/Components/Library/libHardwareApi_JN516x.a(AHI_Reset.o)
                0x0008a6e7                _vAHI_SwReset
 .text.vAHI_IntHandlerSi
                0x0008a6f0       0x45 /cygdrive/c/TWESDK/516x/Components/Library/libHardwareApi_JN516x.a(AHI_Si.o)
                0x0008a6f0                _vAHI_IntHandlerSi
 .text.vAHI_SiRegisterCallback
                0x0008a735        0x9 /cygdrive/c/TWESDK/516x/Components/Library/libHardwareApi_JN516x.a(AHI_Si.o)
                0x0008a735                _vAHI_SiRegisterCallback
 .text.vAHI_IntHandlerSpiMaster
                0x0008a73e       0x26 /cygdrive/c/TWESDK/516x/Components/Library/libHardwareApi_JN516x.a(AHI_Spi.o)
                0x0008a73e                _vAHI_IntHandlerSpiMaster
 .text.vAHI_SpiRegisterCallback
                0x0008a764        0x9 /cygdrive/c/TWESDK/516x/Components/Library/libHardwareApi_JN516x.a(AHI_Spi.o)
                0x0008a764                _vAHI_SpiRegisterCallback
 .text.u8AHI_PowerStatus
                0x0008a76d        0xa /cygdrive/c/TWESDK/516x/Components/Library/libHardwareApi_JN516x.a(AHI_System.o)
                0x0008a76d                _u8AHI_PowerStatus
 .text.vAHI_ProtocolPower
                0x0008a777       0x17 /cygdrive/c/TWESDK/516x/Components/Library/libHardwareApi_JN516x.a(AHI_System.o)
                0x0008a777                _vAHI_ProtocolPower
 .text.vAHI_CpuDoze
                0x0008a78e       0x13 /cygdrive/c/TWESDK/516x/Components/Library/libHardwareApi_JN516x.a(AHI_System.o)
                0x0008a78e                _vAHI_CpuDoze
 .text.vAHI_SysCtrlRegisterCallback
                0x0008a7a1        0x9 /cygdrive/c/TWESDK/516x/Components/Library/libHardwareApi_JN516x.a(AHI_System.o)
                0x0008a7a1                _vAHI_SysCtrlRegisterCallback
 .text.vAHI_HighPowerModuleEnable
                0x0008a7aa       0x2f /cygdrive/c/TWESDK/516x/Components/Library/libHardwareApi_JN516x.a(AHI_System.o)
                0x0008a7aa                _vAHI_HighPowerModuleEnable
 .text.vAHI_WatchdogStart
                0x0008a7d9       0x23 /cygdrive/c/TWESDK/516x/Components/Library/libHardwareApi_JN516x.a(AHI_System.o)
                0x0008a7d9                _vAHI_WatchdogStart
 .text.vAHI_WatchdogStop
                0x0008a7fc       0x17 /cygdrive/c/TWESDK/516x/Components/Library/libHardwareApi_JN516x.a(AHI_System.o)
                0x0008a7fc                _vAHI_WatchdogStop
 .text.vAHI_WatchdogRestart
                0x0008a813        0xd /cygdrive/c/TWESDK/516x/Components/Library/libHardwareApi_JN516x.a(AHI_System.o)
                0x0008a813                _vAHI_WatchdogRestart
 .text.bAHI_GetClkSource
                0x0008a820        0xd /cygdrive/c/TWESDK/516x/Components/Library/libHardwareApi_JN516x.a(AHI_System.o)
                0x0008a820                _bAHI_GetClkSource
 .text.vAHI_OptimiseWaitStates
                0x0008a82d       0x49 /cygdrive/c/TWESDK/516x/Components/Library/libHardwareApi_JN516x.a(AHI_System.o)
                0x0008a82d                _vAHI_OptimiseWaitStates
 .text.vAHI_SetWaitStateToChangingClockSourceAndSpeed
                0x0008a876       0x67 /cygdrive/c/TWESDK/516x/Components/Library/libHardwareApi_JN516x.a(AHI_System.o)
 .text.u8AHI_GetSystemClkSpeed
                0x0008a8dd        0xa /cygdrive/c/TWESDK/516x/Components/Library/libHardwareApi_JN516x.a(AHI_System.o)
                0x0008a8dd                _u8AHI_GetSystemClkSpeed
 .text.vPollClkSource
                0x0008a8e7       0x15 /cygdrive/c/TWESDK/516x/Components/Library/libHardwareApi_JN516x.a(AHI_System.o)
 .text.bAHI_SetClockRate
                0x0008a8fc       0x51 /cygdrive/c/TWESDK/516x/Components/Library/libHardwareApi_JN516x.a(AHI_System.o)
                0x0008a8fc                _bAHI_SetClockRate
 .text.vAHI_MemoryHold
                0x0008a94d       0x48 /cygdrive/c/TWESDK/516x/Components/Library/libHardwareApi_JN516x.a(AHI_System.o)
 .text.vAHI_StartRandomNumberGenerator
                0x0008a995       0x2c /cygdrive/c/TWESDK/516x/Components/Library/libHardwareApi_JN516x.a(AHI_System.o)
                0x0008a995                _vAHI_StartRandomNumberGenerator
 .text.u16AHI_ReadRandomNumber
                0x0008a9c1        0xa /cygdrive/c/TWESDK/516x/Components/Library/libHardwareApi_JN516x.a(AHI_System.o)
                0x0008a9c1                _u16AHI_ReadRandomNumber
 .text.bAHI_Clock32MHzStable
                0x0008a9cb        0xd /cygdrive/c/TWESDK/516x/Components/Library/libHardwareApi_JN516x.a(AHI_System.o)
                0x0008a9cb                _bAHI_Clock32MHzStable
 .text.vAHI_IntHandlerSysCtrl
                0x0008a9d8       0x3d /cygdrive/c/TWESDK/516x/Components/Library/libHardwareApi_JN516x.a(AHI_System.o)
                0x0008a9d8                _vAHI_IntHandlerSysCtrl
 .text.vAHI_Sleep
                0x0008aa15       0xbf /cygdrive/c/TWESDK/516x/Components/Library/libHardwareApi_JN516x.a(AHI_System.o)
                0x0008aa15                _vAHI_Sleep
 .text.vAHI_TickTimerInit
                0x0008aad4        0x9 /cygdrive/c/TWESDK/516x/Components/Library/libHardwareApi_JN516x.a(AHI_TickTimer.o)
                0x0008aad4                _vAHI_TickTimerInit
 .text.vAHI_TickTimerWrite
                0x0008aadd        0x9 /cygdrive/c/TWESDK/516x/Components/Library/libHardwareApi_JN516x.a(AHI_TickTimer.o)
                0x0008aadd                _vAHI_TickTimerWrite
 .text.vAHI_TickTimerConfigure
                0x0008aae6       0x1b /cygdrive/c/TWESDK/516x/Components/Library/libHardwareApi_JN516x.a(AHI_TickTimer.o)
                0x0008aae6                _vAHI_TickTimerConfigure
 .text.vAHI_TickTimerIntEnable
                0x0008ab01       0x21 /cygdrive/c/TWESDK/516x/Components/Library/libHardwareApi_JN516x.a(AHI_TickTimer.o)
                0x0008ab01                _vAHI_TickTimerIntEnable
 .text.vAHI_TickTimerInterval
                0x0008ab22       0x1e /cygdrive/c/TWESDK/516x/Components/Library/libHardwareApi_JN516x.a(AHI_TickTimer.o)
                0x0008ab22                _vAHI_TickTimerInterval
 .text.vAHI_IntHandlerTickTimer
                0x0008ab40       0x3d /cygdrive/c/TWESDK/516x/Components/Library/libHardwareApi_JN516x.a(AHI_TickTimer.o)
                0x0008ab40                _vAHI_IntHandlerTickTimer
 .text.vAHI_TimerEnable
                0x0008ab7d       0x9a /cygdrive/c/TWESDK/516x/Components/Library/libHardwareApi_JN516x.a(AHI_Timer.o)
                0x0008ab7d                _vAHI_TimerEnable
 .text.vAHI_TimerDisable
                0x0008ac17       0x40 /cygdrive/c/TWESDK/516x/Components/Library/libHardwareApi_JN516x.a(AHI_Timer.o)
                0x0008ac17                _vAHI_TimerDisable
 .text.vAHI_TimerClockSelect
                0x0008ac57       0x31 /cygdrive/c/TWESDK/516x/Components/Library/libHardwareApi_JN516x.a(AHI_Timer.o)
                0x0008ac57                _vAHI_TimerClockSelect
 .text.vAHI_TimerStop
                0x0008ac88       0x22 /cygdrive/c/TWESDK/516x/Components/Library/libHardwareApi_JN516x.a(AHI_Timer.o)
                0x0008ac88                _vAHI_TimerStop
 .text.vAHI_TimerConfigure
                0x0008acaa       0x36 /cygdrive/c/TWESDK/516x/Components/Library/libHardwareApi_JN516x.a(AHI_Timer.o)
                0x0008acaa                _vAHI_TimerConfigure
 .text.vStartTimer
                0x0008ace0       0x2a /cygdrive/c/TWESDK/516x/Components/Library/libHardwareApi_JN516x.a(AHI_Timer.o)
 .text.vAHI_TimerStartRepeat
                0x0008ad0a       0x12 /cygdrive/c/TWESDK/516x/Components/Library/libHardwareApi_JN516x.a(AHI_Timer.o)
                0x0008ad0a                _vAHI_TimerStartRepeat
 .text.vAHI_IntHandlerTimer0
                0x0008ad1c       0x1d /cygdrive/c/TWESDK/516x/Components/Library/libHardwareApi_JN516x.a(AHI_TimerInt.o)
                0x0008ad1c                _vAHI_IntHandlerTimer0
 .text.vAHI_IntHandlerTimer1
                0x0008ad39       0x1c /cygdrive/c/TWESDK/516x/Components/Library/libHardwareApi_JN516x.a(AHI_TimerInt.o)
                0x0008ad39                _vAHI_IntHandlerTimer1
 .text.vAHI_Timer0RegisterCallback
                0x0008ad55        0x9 /cygdrive/c/TWESDK/516x/Components/Library/libHardwareApi_JN516x.a(AHI_TimerInt.o)
                0x0008ad55                _vAHI_Timer0RegisterCallback
 .text.vAHI_Timer1RegisterCallback
                0x0008ad5e        0x9 /cygdrive/c/TWESDK/516x/Components/Library/libHardwareApi_JN516x.a(AHI_TimerInt.o)
                0x0008ad5e                _vAHI_Timer1RegisterCallback
 .text.vAHI_Timer2RegisterCallback
                0x0008ad67        0x9 /cygdrive/c/TWESDK/516x/Components/Library/libHardwareApi_JN516x.a(AHI_TimerInt.o)
                0x0008ad67                _vAHI_Timer2RegisterCallback
 .text.vAHI_IntHandlerTimer3
                0x0008ad70       0x1d /cygdrive/c/TWESDK/516x/Components/Library/libHardwareApi_JN516x.a(AHI_TimerInt.o)
                0x0008ad70                _vAHI_IntHandlerTimer3
 .text.vAHI_Timer3RegisterCallback
                0x0008ad8d        0x9 /cygdrive/c/TWESDK/516x/Components/Library/libHardwareApi_JN516x.a(AHI_TimerInt.o)
                0x0008ad8d                _vAHI_Timer3RegisterCallback
 .text.vAHI_IntHandlerTimer4
                0x0008ad96       0x1d /cygdrive/c/TWESDK/516x/Components/Library/libHardwareApi_JN516x.a(AHI_TimerInt.o)
                0x0008ad96                _vAHI_IntHandlerTimer4
 .text.vAHI_Timer4RegisterCallback
                0x0008adb3        0x9 /cygdrive/c/TWESDK/516x/Components/Library/libHardwareApi_JN516x.a(AHI_TimerInt.o)
                0x0008adb3                _vAHI_Timer4RegisterCallback
 .text.vAHI_IntHandlerTimer2
                0x0008adbc       0x33 /cygdrive/c/TWESDK/516x/Components/Library/libHardwareApi_JN516x.a(AHI_TimerInt.o)
                0x0008adbc                _vAHI_IntHandlerTimer2
 .text.vAHI_UartSetBaudDivisor
                0x0008adef       0x59 /cygdrive/c/TWESDK/516x/Components/Library/libHardwareApi_JN516x.a(AHI_Uart.o)
                0x0008adef                _vAHI_UartSetBaudDivisor
 .text.vAHI_UartSetControl
                0x0008ae48       0x58 /cygdrive/c/TWESDK/516x/Components/Library/libHardwareApi_JN516x.a(AHI_Uart.o)
                0x0008ae48                _vAHI_UartSetControl
 .text.vAHI_UartSetInterrupt
                0x0008aea0       0x67 /cygdrive/c/TWESDK/516x/Components/Library/libHardwareApi_JN516x.a(AHI_Uart.o)
                0x0008aea0                _vAHI_UartSetInterrupt
 .text.vAHI_UartReset
                0x0008af07       0x46 /cygdrive/c/TWESDK/516x/Components/Library/libHardwareApi_JN516x.a(AHI_Uart.o)
                0x0008af07                _vAHI_UartReset
 .text.vAHI_UartConfigureFIFOs
                0x0008af4d       0x93 /cygdrive/c/TWESDK/516x/Components/Library/libHardwareApi_JN516x.a(AHI_Uart.o)
 .text.u8AHI_UartReadLineStatus
                0x0008afe0       0x26 /cygdrive/c/TWESDK/516x/Components/Library/libHardwareApi_JN516x.a(AHI_Uart.o)
                0x0008afe0                _u8AHI_UartReadLineStatus
 .text.vAHI_UartWriteData
                0x0008b006       0x1f /cygdrive/c/TWESDK/516x/Components/Library/libHardwareApi_JN516x.a(AHI_Uart.o)
                0x0008b006                _vAHI_UartWriteData
 .text.u8AHI_UartReadData
                0x0008b025       0x26 /cygdrive/c/TWESDK/516x/Components/Library/libHardwareApi_JN516x.a(AHI_Uart.o)
                0x0008b025                _u8AHI_UartReadData
 .text.vAHI_UartSetRTSCTS
                0x0008b04b       0x22 /cygdrive/c/TWESDK/516x/Components/Library/libHardwareApi_JN516x.a(AHI_Uart.o)
                0x0008b04b                _vAHI_UartSetRTSCTS
 .text.vAHI_IntHandlerUart0
                0x0008b06d       0x29 /cygdrive/c/TWESDK/516x/Components/Library/libHardwareApi_JN516x.a(AHI_Uart.o)
                0x0008b06d                _vAHI_IntHandlerUart0
 .text.vAHI_IntHandlerUart1
                0x0008b096       0x29 /cygdrive/c/TWESDK/516x/Components/Library/libHardwareApi_JN516x.a(AHI_Uart.o)
                0x0008b096                _vAHI_IntHandlerUart1
 .text.vAHI_Uart0RegisterCallback
                0x0008b0bf        0x9 /cygdrive/c/TWESDK/516x/Components/Library/libHardwareApi_JN516x.a(AHI_Uart.o)
                0x0008b0bf                _vAHI_Uart0RegisterCallback
 .text.vAHI_Uart1RegisterCallback
                0x0008b0c8        0x9 /cygdrive/c/TWESDK/516x/Components/Library/libHardwareApi_JN516x.a(AHI_Uart.o)
                0x0008b0c8                _vAHI_Uart1RegisterCallback
 .text.vAHI_UartSetClocksPerBit
                0x0008b0d1       0x32 /cygdrive/c/TWESDK/516x/Components/Library/libHardwareApi_JN516x.a(AHI_Uart.o)
                0x0008b0d1                _vAHI_UartSetClocksPerBit
 .text.vAHI_UartEnable
                0x0008b103       0x8c /cygdrive/c/TWESDK/516x/Components/Library/libHardwareApi_JN516x.a(AHI_Uart.o)
                0x0008b103                _vAHI_UartEnable
 .text.vAHI_WakeTimerEnable
                0x0008b18f       0x5c /cygdrive/c/TWESDK/516x/Components/Library/libHardwareApi_JN516x.a(AHI_WakeTimer.o)
                0x0008b18f                _vAHI_WakeTimerEnable
 .text.vAHI_WakeTimerStart
                0x0008b1eb       0x58 /cygdrive/c/TWESDK/516x/Components/Library/libHardwareApi_JN516x.a(AHI_WakeTimer.o)
                0x0008b1eb                _vAHI_WakeTimerStart
 .text.vAHI_WakeTimerStop
                0x0008b243       0x27 /cygdrive/c/TWESDK/516x/Components/Library/libHardwareApi_JN516x.a(AHI_WakeTimer.o)
                0x0008b243                _vAHI_WakeTimerStop
 .text.u8AHI_WakeTimerFiredStatus
                0x0008b26a       0x14 /cygdrive/c/TWESDK/516x/Components/Library/libHardwareApi_JN516x.a(AHI_WakeTimer.o)
                0x0008b26a                _u8AHI_WakeTimerFiredStatus
 .text.u32AHI_WakeTimerCalibrate
                0x0008b27e       0x35 /cygdrive/c/TWESDK/516x/Components/Library/libHardwareApi_JN516x.a(AHI_WakeTimer.o)
                0x0008b27e                _u32AHI_WakeTimerCalibrate
 .text.vAHI_FlashAndEEPROMControllerIntHandler
                0x0008b2b3       0x39 /cygdrive/c/TWESDK/516x/Components/Library/libHardwareApi_JN516x.a(AHI_Flash.o)
                0x0008b2b3                _vAHI_FlashAndEEPROMControllerIntHandler
 .text.vAHI_IntHandlerSpiSlave
                0x0008b2ec       0x1d /cygdrive/c/TWESDK/516x/Components/Library/libHardwareApi_JN516x.a(AHI_SpiSlave.o)
                0x0008b2ec                _vAHI_IntHandlerSpiSlave
 .text.vAHI_IntHandlerInfrared
                0x0008b309       0x17 /cygdrive/c/TWESDK/516x/Components/Library/libHardwareApi_JN516x.a(AHI_Infrared.o)
                0x0008b309                _vAHI_IntHandlerInfrared
 .text.vMicroIntEnableOnly
                0x0008b320       0x2d /cygdrive/c/TWESDK/516x/Components/Library/libMicroSpecific_JN516x.a(MicroInt.o)
                0x0008b320                _vMicroIntEnableOnly
 .text.vMicroIntRestoreState
                0x0008b34d        0xc /cygdrive/c/TWESDK/516x/Components/Library/libMicroSpecific_JN516x.a(MicroInt.o)
                0x0008b34d                _vMicroIntRestoreState
 .text.pvHeap_Alloc
                0x0008b359        0xf /cygdrive/c/TWESDK/516x/Components/Library/libBoot_JN516x.a(Heap.o)
                0x0008b359                _pvHeap_Alloc
 .text.pvHeap_DefAlloc
                0x0008b368       0x41 /cygdrive/c/TWESDK/516x/Components/Library/libBoot_JN516x.a(Heap.o)
 .text.udivmodsi4
                0x0008b3a9       0x34 /cygdrive/c/TWESDK/516x/Components/Library/libMaths_JN516x.a(Maths.o)
                0x0008b3a9                _udivmodsi4
 .text.__udivsi3
                0x0008b3dd        0x8 /cygdrive/c/TWESDK/516x/Components/Library/libMaths_JN516x.a(Maths.o)
                0x0008b3dd                ___udivsi3
 .text.__umodsi3
                0x0008b3e5        0x8 /cygdrive/c/TWESDK/516x/Components/Library/libMaths_JN516x.a(Maths.o)
                0x0008b3e5                ___umodsi3
 .text.__divsi3
                0x0008b3ed       0x2c /cygdrive/c/TWESDK/516x/Components/Library/libMaths_JN516x.a(Maths.o)
                0x0008b3ed                ___divsi3
 .text.bAES_CCMstar
                0x0008b419      0x2c1 /cygdrive/c/TWESDK/516x/Components/Library/libAES_CCM_SW_PATCH_JN516x.a(aes_ccmstar.o)
                0x0008b419                _bAES_CCMstar
 .text.vACI_IntHandlerAes
                0x0008b6da       0x25 /cygdrive/c/TWESDK/516x/Components/Library/libAes_JN516x.a(AEScoprocessorAPIinterrupts.o)
                0x0008b6da                _vACI_IntHandlerAes
 .text.bACI_ECBencodeBuffer
                0x0008b6ff       0x7a /cygdrive/c/TWESDK/516x/Components/Library/libAes_JN516x.a(AEScoprocessorECB.o)
                0x0008b6ff                _bACI_ECBencodeBuffer
 .text.bACI_ECBencodeStripe
                0x0008b779       0x17 /cygdrive/c/TWESDK/516x/Components/Library/libAes_JN516x.a(AEScoprocessorECB.o)
                0x0008b779                _bACI_ECBencodeStripe
 .text.bACI_isBusy
                0x0008b790        0xd /cygdrive/c/TWESDK/516x/Components/Library/libAes_JN516x.a(AEScoprocessorAPI.o)
                0x0008b790                _bACI_isBusy
 .text.bACI_commandAccepted
                0x0008b79d       0x10 /cygdrive/c/TWESDK/516x/Components/Library/libAes_JN516x.a(AEScoprocessorAPI.o)
                0x0008b79d                _bACI_commandAccepted
 .text.vACI_CmdWaitBusy
                0x0008b7ad        0xf /cygdrive/c/TWESDK/516x/Components/Library/libAes_JN516x.a(AEScoprocessorAPI.o)
                0x0008b7ad                _vACI_CmdWaitBusy
 .text.bIssueACIcommand
                0x0008b7bc       0xa7 /cygdrive/c/TWESDK/516x/Components/Library/libAes_JN516x.a(AEScoprocessorAPI.o)
                0x0008b7bc                _bIssueACIcommand
 .text.bACI_WriteKey
                0x0008b863       0x16 /cygdrive/c/TWESDK/516x/Components/Library/libAes_JN516x.a(AEScoprocessorAPI.o)
                0x0008b863                _bACI_WriteKey
 .text.bACI_ReadOutputData
                0x0008b879       0x35 /cygdrive/c/TWESDK/516x/Components/Library/libAes_JN516x.a(AEScoprocessorAPI.o)
                0x0008b879                _bACI_ReadOutputData
 .text.bACI_WriteInputData
                0x0008b8ae       0x23 /cygdrive/c/TWESDK/516x/Components/Library/libAes_JN516x.a(AEScoprocessorAPI.o)
                0x0008b8ae                _bACI_WriteInputData
 .text          0x0008b8d1       0x28 /cygdrive/c/TWESDK/Tools/ba-elf-ba2/bin/../lib/gcc/ba-elf/4.1.2/../../../../ba-elf/lib/ba2/libc.a(memcmp.o)
                0x0008b8d1                _memcmp
 .text          0x0008b8f9       0x1d /cygdrive/c/TWESDK/Tools/ba-elf-ba2/bin/../lib/gcc/ba-elf/4.1.2/../../../../ba-elf/lib/ba2/libc.a(memcpy.o)
 .text          0x0008b916       0x18 /cygdrive/c/TWESDK/Tools/ba-elf-ba2/bin/../lib/gcc/ba-elf/4.1.2/../../../../ba-elf/lib/ba2/libc.a(memset.o)
                0x0008b916                _memset
                0x0008b92e                _flash_end = <code 342> (.)
                0x0400004c                . = 0x400004c

.data           0x0400004c       0x2c load address 0x0008b930
                0x0400004c                _ram_data_start = <code 342> (.)
 *(.data*)
 .data.u8TxWkrNow
                0x0400004c        0x1 /cygdrive/c/TWESDK/Wks_ToCoNet/CardReader/../../Wks_libToCoNet/libToCoNet/lib/libToCoNet_JN5164.a(ToCoNet_mod_Tx.o)
 .data.initinboot
                0x0400004d        0x1 /cygdrive/c/TWESDK/516x/Components/Library/libAppApi_JN516x.a(AppApi.o)
                0x0400004d                _g_bNoCalibration
 .data.u8MAC_MaxConcurrentAssocResponses
                0x0400004e        0x1 /cygdrive/c/TWESDK/516x/Components/Library/libMac_JN516x.a(mac_pmic.o)
                0x0400004e                _u8MAC_MaxConcurrentAssocResponses
 *fill*         0x0400004f        0x1 00
 .data.aprLPBMacVectorRamTable
                0x04000050       0x14 /cygdrive/c/TWESDK/516x/Components/Library/libMac_JN516x.a(mac_lp.o)
                0x04000050                _aprLPBMacVectorRamTable
 .data.bFirstTamInit.4640
                0x04000064        0x1 /cygdrive/c/TWESDK/516x/Components/Library/libMac_JN516x.a(TAM.o)
 .data.initinboot
                0x04000065        0x1 /cygdrive/c/TWESDK/516x/Components/Library/libMac_JN516x.a(TAM_MEM.o)
                0x04000065                _gMAC_u8MaxBuffers
 *fill*         0x04000066        0x2 00
 .data.initinboot
                0x04000068        0x4 /cygdrive/c/TWESDK/516x/Components/Library/libXcv_JN516x.a(xcv_main.o)
 .data.prHeap_AllocFunc
                0x0400006c        0x4 /cygdrive/c/TWESDK/516x/Components/Library/libBoot_JN516x.a(Heap.o)
                0x0400006c                _prHeap_AllocFunc
 .data.u32HeapStart
                0x04000070        0x4 /cygdrive/c/TWESDK/516x/Components/Library/libBoot_JN516x.a(Heap.o)
                0x04000070                _u32HeapStart
 .data.u32HeapEnd
                0x04000074        0x4 /cygdrive/c/TWESDK/516x/Components/Library/libBoot_JN516x.a(Heap.o)
                0x04000074                _u32HeapEnd
 *(.data.*)
                0x04000078                . = ALIGN (0x4)
                0x04000078                _ram_data_end = <code 342> (.)

.bss            0x04000078     0x19dc
                0x04000078                _bss_start = <code 342> (.)
 *(.bss*)
 .bss.au8SerialRxBuffer.5096
                0x04000078       0x20 objs_JN5164/CardReader.o
 .bss.au8SerialTxBuffer.5095
                0x04000098       0x60 objs_JN5164/CardReader.o
 .bss.bWakeupByButton
                0x040000f8        0x1 objs_JN5164/CardReader.o
 *fill*         0x040000f9        0x3 00
 .bss.sAppData  0x040000fc       0x14 objs_JN5164/CardReader.o
 .bss.u32TickCount_ms
                0x04000110        0x4 /cygdrive/c/TWESDK/Wks_ToCoNet/CardReader/../../Wks_libToCoNet/libToCoNet/lib/libToCoNet_JN5164.a(ToCoNet_main.o)
                0x04000110                _u32TickCount_ms
 .bss.u16Tick_Counting_dozens.4897
                0x04000114        0x2 /cygdrive/c/TWESDK/Wks_ToCoNet/CardReader/../../Wks_libToCoNet/libToCoNet/lib/libToCoNet_JN5164.a(ToCoNet_main.o)
 .bss.u16Tick_Counting_Second.4896
                0x04000116        0x2 /cygdrive/c/TWESDK/Wks_ToCoNet/CardReader/../../Wks_libToCoNet/libToCoNet/lib/libToCoNet_JN5164.a(ToCoNet_main.o)
 .bss.sRxQueueCmd
                0x04000118       0x1c /cygdrive/c/TWESDK/Wks_ToCoNet/CardReader/../../Wks_libToCoNet/libToCoNet/lib/libToCoNet_JN5164.a(ToCoNet_main.o)
 .bss.bForceInitialize
                0x04000134        0x1 /cygdrive/c/TWESDK/Wks_ToCoNet/CardReader/../../Wks_libToCoNet/libToCoNet/lib/libToCoNet_JN5164.a(ToCoNet_mod_Tx.o)
 .bss.bReset.4806
                0x04000135        0x1 /cygdrive/c/TWESDK/Wks_ToCoNet/CardReader/../../Wks_libToCoNet/libToCoNet/lib/libToCoNet_JN5164.a(ToCoNet_mod_Tx.o)
 .bss.u8failct.4765
                0x04000136        0x1 /cygdrive/c/TWESDK/Wks_ToCoNet/CardReader/../../Wks_libToCoNet/libToCoNet/lib/libToCoNet_JN5164.a(ToCoNet_mod_Tx.o)
 .bss.bChChange.4762
                0x04000137        0x1 /cygdrive/c/TWESDK/Wks_ToCoNet/CardReader/../../Wks_libToCoNet/libToCoNet/lib/libToCoNet_JN5164.a(ToCoNet_mod_Tx.o)
 .bss.asTx      0x04000138        0x4 /cygdrive/c/TWESDK/Wks_ToCoNet/CardReader/../../Wks_libToCoNet/libToCoNet/lib/libToCoNet_JN5164.a(ToCoNet_mod_Tx.o)
 .bss.TxWorker_u8Num
                0x0400013c        0x1 /cygdrive/c/TWESDK/Wks_ToCoNet/CardReader/../../Wks_libToCoNet/libToCoNet/lib/libToCoNet_JN5164.a(ToCoNet_mod_Tx.o)
 *fill*         0x0400013d        0x3 00
 .bss.TxWorker_asTxData.3542
                0x04000140      0x1f8 /cygdrive/c/TWESDK/Wks_ToCoNet/CardReader/../../Wks_libToCoNet/libToCoNet/lib/libToCoNet_JN5164.a(ToCoNet_mod_TxRxQueue.o)
 .bss.au8Rxdatabuff_idx_sRxQueueCmdMid.3540
                0x04000338        0x3 /cygdrive/c/TWESDK/Wks_ToCoNet/CardReader/../../Wks_libToCoNet/libToCoNet/lib/libToCoNet_JN5164.a(ToCoNet_mod_TxRxQueue.o)
 *fill*         0x0400033b        0x1 00
 .bss.sRxdatabuff_sRxQueueCmdMid.3539
                0x0400033c      0x1a4 /cygdrive/c/TWESDK/Wks_ToCoNet/CardReader/../../Wks_libToCoNet/libToCoNet/lib/libToCoNet_JN5164.a(ToCoNet_mod_TxRxQueue.o)
 .bss.au8Rxdatabuff_idx_sRxQueueMid.3537
                0x040004e0        0x6 /cygdrive/c/TWESDK/Wks_ToCoNet/CardReader/../../Wks_libToCoNet/libToCoNet/lib/libToCoNet_JN5164.a(ToCoNet_mod_TxRxQueue.o)
 *fill*         0x040004e6        0x2 00
 .bss.sRxdatabuff_sRxQueueMid.3536
                0x040004e8      0x348 /cygdrive/c/TWESDK/Wks_ToCoNet/CardReader/../../Wks_libToCoNet/libToCoNet/lib/libToCoNet_JN5164.a(ToCoNet_mod_TxRxQueue.o)
 .bss.au8Txdatabuff_idx_sTxQueueMid.3534
                0x04000830        0x6 /cygdrive/c/TWESDK/Wks_ToCoNet/CardReader/../../Wks_libToCoNet/libToCoNet/lib/libToCoNet_JN5164.a(ToCoNet_mod_TxRxQueue.o)
 *fill*         0x04000836        0x2 00
 .bss.sTxdatabuff_sTxQueueMid.3533
                0x04000838      0x3f0 /cygdrive/c/TWESDK/Wks_ToCoNet/CardReader/../../Wks_libToCoNet/libToCoNet/lib/libToCoNet_JN5164.a(ToCoNet_mod_TxRxQueue.o)
 .bss.sCh_Context
                0x04000c28        0x4 /cygdrive/c/TWESDK/Wks_ToCoNet/CardReader/../../Wks_libToCoNet/libToCoNet/lib/libToCoNet_JN5164.a(ToCoNet_mod_Channel_Mgr.o)
 .bss.asMlmeIndBuffer
                0x04000c2c      0x370 /cygdrive/c/TWESDK/Wks_ToCoNet/CardReader/../../Wks_libToCoNet/libToCoNet/lib/libToCoNet_JN5164.a(AppQueueApi_ToCoNet.o)
 .bss.asMcpsIndBuffer
                0x04000f9c      0x2a0 /cygdrive/c/TWESDK/Wks_ToCoNet/CardReader/../../Wks_libToCoNet/libToCoNet/lib/libToCoNet_JN5164.a(AppQueueApi_ToCoNet.o)
 .bss.asHwIndBuffer
                0x0400123c       0x50 /cygdrive/c/TWESDK/Wks_ToCoNet/CardReader/../../Wks_libToCoNet/libToCoNet/lib/libToCoNet_JN5164.a(AppQueueApi_ToCoNet.o)
 .bss.sMlmeIndBufferQueue
                0x0400128c       0x10 /cygdrive/c/TWESDK/Wks_ToCoNet/CardReader/../../Wks_libToCoNet/libToCoNet/lib/libToCoNet_JN5164.a(AppQueueApi_ToCoNet.o)
 .bss.sMcpsIndBufferQueue
                0x0400129c       0x10 /cygdrive/c/TWESDK/Wks_ToCoNet/CardReader/../../Wks_libToCoNet/libToCoNet/lib/libToCoNet_JN5164.a(AppQueueApi_ToCoNet.o)
 .bss.sHwIndBufferQueue
                0x040012ac       0x10 /cygdrive/c/TWESDK/Wks_ToCoNet/CardReader/../../Wks_libToCoNet/libToCoNet/lib/libToCoNet_JN5164.a(AppQueueApi_ToCoNet.o)
 .bss.sMlmeIndQueue
                0x040012bc       0x10 /cygdrive/c/TWESDK/Wks_ToCoNet/CardReader/../../Wks_libToCoNet/libToCoNet/lib/libToCoNet_JN5164.a(AppQueueApi_ToCoNet.o)
 .bss.sMcpsIndQueue
                0x040012cc       0x10 /cygdrive/c/TWESDK/Wks_ToCoNet/CardReader/../../Wks_libToCoNet/libToCoNet/lib/libToCoNet_JN5164.a(AppQueueApi_ToCoNet.o)
 .bss.sHwIndQueue
                0x040012dc       0x10 /cygdrive/c/TWESDK/Wks_ToCoNet/CardReader/../../Wks_libToCoNet/libToCoNet/lib/libToCoNet_JN5164.a(AppQueueApi_ToCoNet.o)
 .bss.apvMlmeIndData
                0x040012ec       0x14 /cygdrive/c/TWESDK/Wks_ToCoNet/CardReader/../../Wks_libToCoNet/libToCoNet/lib/libToCoNet_JN5164.a(AppQueueApi_ToCoNet.o)
 .bss.apvMcpsIndData
                0x04001300       0x14 /cygdrive/c/TWESDK/Wks_ToCoNet/CardReader/../../Wks_libToCoNet/libToCoNet/lib/libToCoNet_JN5164.a(AppQueueApi_ToCoNet.o)
 .bss.apvHwIndData
                0x04001314       0x2c /cygdrive/c/TWESDK/Wks_ToCoNet/CardReader/../../Wks_libToCoNet/libToCoNet/lib/libToCoNet_JN5164.a(AppQueueApi_ToCoNet.o)
 .bss.prAppMlmeCallback
                0x04001340        0x4 /cygdrive/c/TWESDK/Wks_ToCoNet/CardReader/../../Wks_libToCoNet/libToCoNet/lib/libToCoNet_JN5164.a(AppQueueApi_ToCoNet.o)
 .bss.prAppMcpsCallback
                0x04001344        0x4 /cygdrive/c/TWESDK/Wks_ToCoNet/CardReader/../../Wks_libToCoNet/libToCoNet/lib/libToCoNet_JN5164.a(AppQueueApi_ToCoNet.o)
 .bss.prAppHwCallback
                0x04001348        0x4 /cygdrive/c/TWESDK/Wks_ToCoNet/CardReader/../../Wks_libToCoNet/libToCoNet/lib/libToCoNet_JN5164.a(AppQueueApi_ToCoNet.o)
 .bss.evPost    0x0400134c        0x4 /cygdrive/c/TWESDK/Wks_ToCoNet/CardReader/../../Wks_libToCoNet/libToCoNet/lib/libToCoNet_JN5164.a(ToCoNet_event.o)
 .bss.u32PostArg
                0x04001350        0x4 /cygdrive/c/TWESDK/Wks_ToCoNet/CardReader/../../Wks_libToCoNet/libToCoNet/lib/libToCoNet_JN5164.a(ToCoNet_event.o)
 .bss.pvPostFunc
                0x04001354        0x4 /cygdrive/c/TWESDK/Wks_ToCoNet/CardReader/../../Wks_libToCoNet/libToCoNet/lib/libToCoNet_JN5164.a(ToCoNet_event.o)
 .bss.asEventHandler
                0x04001358       0x80 /cygdrive/c/TWESDK/Wks_ToCoNet/CardReader/../../Wks_libToCoNet/libToCoNet/lib/libToCoNet_JN5164.a(ToCoNet_event.o)
 .bss.s_psMacPib.5600
                0x040013d8        0x4 /cygdrive/c/TWESDK/Wks_ToCoNet/CardReader/../../Wks_libToCoNet/libToCoNet/lib/libToCoNetExt_JN5164.a(AppStart.o)
 .bss.pvMac.5599
                0x040013dc        0x4 /cygdrive/c/TWESDK/Wks_ToCoNet/CardReader/../../Wks_libToCoNet/libToCoNet/lib/libToCoNetExt_JN5164.a(AppStart.o)
 .bss.u8ChPrev.5588
                0x040013e0        0x1 /cygdrive/c/TWESDK/Wks_ToCoNet/CardReader/../../Wks_libToCoNet/libToCoNet/lib/libToCoNetExt_JN5164.a(AppStart.o)
 .bss.au8dec.5493
                0x040013e1       0x10 /cygdrive/c/TWESDK/Wks_ToCoNet/CardReader/../../Wks_libToCoNet/libToCoNet/lib/libToCoNetExt_JN5164.a(AppStart.o)
 .bss.u8m       0x040013f1        0x1 /cygdrive/c/TWESDK/Wks_ToCoNet/CardReader/../../Wks_libToCoNet/libToCoNet/lib/libToCoNetExt_JN5164.a(AppStart.o)
 *fill*         0x040013f2        0x2 00
 .bss.pvMac.4406
                0x040013f4        0x4 /cygdrive/c/TWESDK/Wks_ToCoNet/CardReader/../../Wks_libToCoNet/libToCoNet/lib/libToCoNetExt_JN5164.a(mac.o)
 .bss.psRxQueueList
                0x040013f8       0x14 /cygdrive/c/TWESDK/Wks_ToCoNet/CardReader/../../Wks_libToCoNet/libToCoNet/lib/libToCoNetExt_JN5164.a(mac.o)
 .bss.u32AppId  0x0400140c        0x4 /cygdrive/c/TWESDK/Wks_ToCoNet/CardReader/../../Wks_libToCoNet/libToCoNet/lib/libToCoNetExt_JN5164.a(mac.o)
 .bss.u32MyAddr
                0x04001410        0x4 /cygdrive/c/TWESDK/Wks_ToCoNet/CardReader/../../Wks_libToCoNet/libToCoNet/lib/libToCoNetExt_JN5164.a(mac.o)
 .bss.u8AppId_Pkt_head
                0x04001414        0x4 /cygdrive/c/TWESDK/Wks_ToCoNet/CardReader/../../Wks_libToCoNet/libToCoNet/lib/libToCoNetExt_JN5164.a(mac.o)
 .bss.sContext  0x04001418       0x2c /cygdrive/c/TWESDK/Wks_ToCoNet/CardReader/../../Wks_libToCoNet/libToCoNet/lib/libToCoNetExt_JN5164.a(AES_CCM.o)
 .bss.prOriginalHandler
                0x04001444        0x4 /cygdrive/c/TWESDK/Wks_ToCoNet/CardReader/../../Wks_libToCoNet/libToCoNet/lib/libToCoNetExt_JN5164.a(no_ack_handler.o)
 .bss.asUARTS   0x04001448       0x20 /cygdrive/c/TWESDK/Wks_ToCoNet/CardReader/../../Wks_libToCoNet/libToCoNet/lib/libToCoNetUtils_JN5164.a(uart.o)
 .bss.sOpt      0x04001468       0x10 /cygdrive/c/TWESDK/Wks_ToCoNet/CardReader/../../Wks_libToCoNet/libToCoNet/lib/libToCoNetUtils_JN5164.a(uart.o)
 .bss.u8sprintf_idx
                0x04001478        0x1 /cygdrive/c/TWESDK/Wks_ToCoNet/CardReader/../../Wks_libToCoNet/libToCoNet/lib/libToCoNetUtils_JN5164.a(sprintf.o)
 .bss.au8buff.1915
                0x04001479       0x80 /cygdrive/c/TWESDK/Wks_ToCoNet/CardReader/../../Wks_libToCoNet/libToCoNet/lib/libToCoNetUtils_JN5164.a(sprintf.o)
 *fill*         0x040014f9        0x1 00
 .bss.SPRINTF_MAX_BUFF
                0x040014fa        0x2 /cygdrive/c/TWESDK/Wks_ToCoNet/CardReader/../../Wks_libToCoNet/libToCoNet/lib/libToCoNetUtils_JN5164.a(sprintf.o)
 .bss.au8sprintf
                0x040014fc        0x4 /cygdrive/c/TWESDK/Wks_ToCoNet/CardReader/../../Wks_libToCoNet/libToCoNet/lib/libToCoNetUtils_JN5164.a(sprintf.o)
 .bss.SPRINTF_sStream
                0x04001500        0x8 /cygdrive/c/TWESDK/Wks_ToCoNet/CardReader/../../Wks_libToCoNet/libToCoNet/lib/libToCoNetUtils_JN5164.a(sprintf.o)
 .bss.u32ct.2968
                0x04001508        0x4 /cygdrive/c/TWESDK/Wks_ToCoNet/CardReader/../../Wks_libToCoNet/libToCoNet/lib/libToCoNetUtils_JN5164.a(utils.o)
 .bss.gu8ModuleID
                0x0400150c        0x1 /cygdrive/c/TWESDK/516x/Components/Library/libAppApi_JN516x.a(AppApi.o)
                0x0400150c                _gu8ModuleID
 .bss.gbHighPowerMode
                0x0400150d        0x1 /cygdrive/c/TWESDK/516x/Components/Library/libAppApi_JN516x.a(AppApi.o)
                0x0400150d                _gbHighPowerMode
 *fill*         0x0400150e        0x2 00
 .bss.prMlmeRequest
                0x04001510        0x4 /cygdrive/c/TWESDK/516x/Components/Library/libAppApi_JN516x.a(AppApi.o)
 .bss.prMcpsRequest
                0x04001514        0x4 /cygdrive/c/TWESDK/516x/Components/Library/libAppApi_JN516x.a(AppApi.o)
 .bss.initinboot
                0x04001518        0x8 /cygdrive/c/TWESDK/516x/Components/Library/libAppApi_JN516x.a(AppApi.o)
                0x04001518                _prvUserTxStartedCallback
                0x0400151c                _g_bBoostMode
 .bss.sStoredMacData
                0x04001520       0x1c /cygdrive/c/TWESDK/516x/Components/Library/libAppApi_JN516x.a(AppApiSleep.o)
 .bss.initinboot
                0x0400153c      0x1c8 /cygdrive/c/TWESDK/516x/Components/Library/libMac_JN516x.a(mac_main.o)
                0x0400153c                _g_sMac
 .bss.initinboot
                0x04001704        0x4 /cygdrive/c/TWESDK/516x/Components/Library/libMac_JN516x.a(mac_pib_mlme.o)
                0x04001704                _g_u32MacAddrLocation
 .bss.sAssocSecurity
                0x04001708        0xc /cygdrive/c/TWESDK/516x/Components/Library/libMac_JN516x.a(mac_pmic.o)
 .bss.u8AssocResponsesInProgress
                0x04001714        0x1 /cygdrive/c/TWESDK/516x/Components/Library/libMac_JN516x.a(mac_pmic.o)
 .bss.bScanInProgress
                0x04001715        0x1 /cygdrive/c/TWESDK/516x/Components/Library/libMac_JN516x.a(mac_scan.o)
 *fill*         0x04001716        0x2 00
 .bss.u32BadMacBufferReturns
                0x04001718        0x4 /cygdrive/c/TWESDK/516x/Components/Library/libMac_JN516x.a(TAM_MEM.o)
 .bss.initinboot
                0x0400171c        0x4 /cygdrive/c/TWESDK/516x/Components/Library/libMac_JN516x.a(TAMcommon.o)
                0x0400171c                _bEnablePANIDConflicts
 .bss.bTxEventQueued
                0x04001720        0x1 /cygdrive/c/TWESDK/516x/Components/Library/libMac_JN516x.a(TAMevent.o)
 .bss.u8TxEventStatus
                0x04001721        0x1 /cygdrive/c/TWESDK/516x/Components/Library/libMac_JN516x.a(TAMevent.o)
 .bss.gu8Mlen   0x04001722        0x1 /cygdrive/c/TWESDK/516x/Components/Library/libMac_JN516x.a(TAMsecurity.o)
 .bss.gu8Alen   0x04001723        0x1 /cygdrive/c/TWESDK/516x/Components/Library/libMac_JN516x.a(TAMsecurity.o)
 .bss.pgsExtAddr
                0x04001724        0x4 /cygdrive/c/TWESDK/516x/Components/Library/libMac_JN516x.a(TAMsecurity.o)
 .bss.initinboot
                0x04001728        0x1 /cygdrive/c/TWESDK/516x/Components/Library/libMac_JN516x.a(TAMsideways.o)
                0x04001728                _bMAC_ImmortalIndirect
 .bss.dontinitinboot
                0x04001729        0x1 /cygdrive/c/TWESDK/516x/Components/Library/libMac_JN516x.a(TAM_AES.o)
 *fill*         0x0400172a        0x2 00
 .bss.dontinitinboot
                0x0400172c        0x8 /cygdrive/c/TWESDK/516x/Components/Library/libXcv_JN516x.a(xcv_main.o)
 .bss.prApAppCallback
                0x04001734        0x4 /cygdrive/c/TWESDK/516x/Components/Library/libHardwareApi_JN516x.a(AHI_Analogue.o)
 .bss.prSiAppCallback
                0x04001738        0x4 /cygdrive/c/TWESDK/516x/Components/Library/libHardwareApi_JN516x.a(AHI_Si.o)
 .bss.prSpiAppCallback
                0x0400173c        0x4 /cygdrive/c/TWESDK/516x/Components/Library/libHardwareApi_JN516x.a(AHI_Spi.o)
 .bss.initinboot
                0x04001740        0x4 /cygdrive/c/TWESDK/516x/Components/Library/libHardwareApi_JN516x.a(AHI_System.o)
 .bss.au16TimerSettings
                0x04001744        0xa /cygdrive/c/TWESDK/516x/Components/Library/libHardwareApi_JN516x.a(AHI_Timer.o)
 *fill*         0x0400174e        0x2 00
 .bss.prTimer4AppCallback
                0x04001750        0x4 /cygdrive/c/TWESDK/516x/Components/Library/libHardwareApi_JN516x.a(AHI_TimerInt.o)
 .bss.prTimer3AppCallback
                0x04001754        0x4 /cygdrive/c/TWESDK/516x/Components/Library/libHardwareApi_JN516x.a(AHI_TimerInt.o)
 .bss.prTimer2AppCallback
                0x04001758        0x4 /cygdrive/c/TWESDK/516x/Components/Library/libHardwareApi_JN516x.a(AHI_TimerInt.o)
 .bss.prTimer1AppCallback
                0x0400175c        0x4 /cygdrive/c/TWESDK/516x/Components/Library/libHardwareApi_JN516x.a(AHI_TimerInt.o)
 .bss.prTimer0AppCallback
                0x04001760        0x4 /cygdrive/c/TWESDK/516x/Components/Library/libHardwareApi_JN516x.a(AHI_TimerInt.o)
 .bss.prUart1AppCallback
                0x04001764        0x4 /cygdrive/c/TWESDK/516x/Components/Library/libHardwareApi_JN516x.a(AHI_Uart.o)
 .bss.prUart0AppCallback
                0x04001768        0x4 /cygdrive/c/TWESDK/516x/Components/Library/libHardwareApi_JN516x.a(AHI_Uart.o)
 .bss.apu8DMAbuffer
                0x0400176c        0x8 /cygdrive/c/TWESDK/516x/Components/Library/libHardwareApi_JN516x.a(AHI_Uart.o)
 .bss.u32FlashParityErrorCount
                0x04001774        0x4 /cygdrive/c/TWESDK/516x/Components/Library/libHardwareApi_JN516x.a(AHI_Flash.o)
 .bss.prFlashEECAppCallback
                0x04001778        0x4 /cygdrive/c/TWESDK/516x/Components/Library/libHardwareApi_JN516x.a(AHI_Flash.o)
 .bss.prSpiAppCallback
                0x0400177c        0x4 /cygdrive/c/TWESDK/516x/Components/Library/libHardwareApi_JN516x.a(AHI_SpiSlave.o)
 .bss.prInfraredAppCallback
                0x04001780        0x4 /cygdrive/c/TWESDK/516x/Components/Library/libHardwareApi_JN516x.a(AHI_Infrared.o)
 .bss.dontinitinboot
                0x04001784       0x40 /cygdrive/c/TWESDK/516x/Components/Library/libBoot_JN516x.a(ExceptionHandler.o)
                0x04001784                _isr_handlers
 .bss.dontinitinboot
                0x040017c4        0x4 /cygdrive/c/TWESDK/516x/Components/Library/libAes_JN516x.a(AEScoprocessorAPIinterrupts.o)
 *(.bss.*)
 *(COMMON)
 COMMON         0x040017c8       0x40 objs_JN5164/CardReader.o
                0x040017c8                _sSerStream
                0x040017d0                _sRCS620SData
                0x040017f0                _sSerPort
 COMMON         0x04001808      0x114 /cygdrive/c/TWESDK/Wks_ToCoNet/CardReader/../../Wks_libToCoNet/libToCoNet/lib/libToCoNet_JN5164.a(ToCoNet_main.o)
                0x04001808                _sToCoNet_AppContext
                0x04001824                _au8Txdatabuff_idx_sTxQueue
                0x04001828                _sTxQueue
                0x04001844                _u8RxBuffSiz_sRxQueue
                0x04001848                _au8Rxdatabuff_idx_sRxQueue
                0x0400184c                _sRxQueue
                0x04001868                _sToCoNet_Context
                0x040018ac                _sToCoNet_Modules
                0x04001904                _sTxdatabuff_sTxQueue
                0x04001908                _u8RxBuffSiz_sRxQueueCmd
                0x0400190c                _sRxdatabuff_sRxQueue
                0x04001910                _u8TxBuffSiz_sTxQueue
                0x04001914                _au8Rxdatabuff_idx_sRxQueueCmd
                0x04001918                _sRxdatabuff_sRxQueueCmd
 COMMON         0x0400191c       0x54 /cygdrive/c/TWESDK/Wks_ToCoNet/CardReader/../../Wks_libToCoNet/libToCoNet/lib/libToCoNet_JN5164.a(AppQueueApi_ToCoNet.o)
                0x0400191c                _apvHwIndBufferData
                0x04001948                _apvMcpsIndBufferData
                0x0400195c                _apvMlmeIndBufferData
 COMMON         0x04001970       0x1c /cygdrive/c/TWESDK/Wks_ToCoNet/CardReader/../../Wks_libToCoNet/libToCoNet/lib/libToCoNet_JN5164.a(ToCoNet_event.o)
                0x04001970                _sEvVars
 COMMON         0x0400198c        0x1 /cygdrive/c/TWESDK/Wks_ToCoNet/CardReader/../../Wks_libToCoNet/libToCoNet/lib/libToCoNetExt_JN5164.a(mac.o)
                0x0400198c                __MAC_u8TxFailReason
 *fill*         0x0400198d        0x3 00
 COMMON         0x04001990       0x38 /cygdrive/c/TWESDK/Wks_ToCoNet/CardReader/../../Wks_libToCoNet/libToCoNet/lib/libToCoNetUtils_JN5164.a(serial.o)
                0x04001990                _asSerialPorts
 COMMON         0x040019c8        0x4 /cygdrive/c/TWESDK/Wks_ToCoNet/CardReader/../../Wks_libToCoNet/libToCoNet/lib/libToCoNetUtils_JN5164.a(sprintf.o)
                0x040019c8                _SPRINTF_Stream
 COMMON         0x040019cc        0x8 /cygdrive/c/TWESDK/516x/Components/Library/libAppApi_JN516x.a(AppApi.o)
                0x040019cc                _g_pvMac
                0x040019d0                _g_sXcv
 COMMON         0x040019d4        0x4 /cygdrive/c/TWESDK/516x/Components/Library/libMac_JN516x.a(mac_mlme.o)
                0x040019d4                _prMAC_TofMlmeReqHandler
 COMMON         0x040019d8        0x1 /cygdrive/c/TWESDK/516x/Components/Library/libMac_JN516x.a(mac_pmic.o)
                0x040019d8                _bMAC_DiscardUnsuccessfulAssocResponses
 *fill*         0x040019d9        0x3 00
 COMMON         0x040019dc       0x40 /cygdrive/c/TWESDK/516x/Components/Library/libMac_JN516x.a(mac_lp.o)
                0x040019dc                _g_sLP
 COMMON         0x04001a1c        0x1 /cygdrive/c/TWESDK/516x/Components/Library/libMac_JN516x.a(TAM_TAT.o)
                0x04001a1c                _u8Msq
 *fill*         0x04001a1d        0x3 00
 COMMON         0x04001a20        0x4 /cygdrive/c/TWESDK/516x/Components/Library/libMac_JN516x.a(TAMcommon.o)
                0x04001a20                _prMAC_TofRxHandler
 COMMON         0x04001a24        0x1 /cygdrive/c/TWESDK/516x/Components/Library/libMac_JN516x.a(TAMevent.o)
                0x04001a24                _u8TAM_TxStatusOverride
 *fill*         0x04001a25        0x3 00
 COMMON         0x04001a28       0x10 /cygdrive/c/TWESDK/516x/Components/Library/libTimerServer_JN516x.a(tsv_main.o)
                0x04001a28                _s_sTimerList
 COMMON         0x04001a38        0x4 /cygdrive/c/TWESDK/516x/Components/Library/libHardwareApi_JN516x.a(AHI_TickTimer.o)
                0x04001a38                _prTickTimeAppCallback
 COMMON         0x04001a3c       0x18 /cygdrive/c/TWESDK/516x/Components/Library/libAppApi_JN516x.a(AppHousekeeping.o)
                0x04001a3c                _sAppHousekeeping
                0x04001a54                . = ALIGN (0x4)
                0x04001a54                _bss_end = <code 342> (.)
                0x04001a54                _end = .

.heap           0x04001a54      0xd16
                0x04001a54                __heap_start = <code 342> (.)
                0x0400276a                . = (. + _minimum_heap_size)
 *fill*         0x04001a54      0xd16 00

.stack          0x04007000     0x1000
                0x04007000                __heap_end = <code 342> (.)
                0x04007000                _stack_low_water_mark = <code 342> (.)
                0x04008000                . = (. + _stack_size)
 *fill*         0x04007000     0x1000 00
                0x04008000                _stack = .

.test           0x0008b95c        0x1
                0x0008b95c        0x1 BYTE 0xff
                0x0008b930                _flash_data_start = LOADADDR (.data)
                0x0000002c                _ram_data_len = (((_ram_data_end - _ram_data_start) + 0x3) & 0xfffffffc)
                0x000019dc                _bss_len = (((_bss_end - _bss_start) + 0x3) & 0xfffffffc)
                0x0000b95c                _image_len = ((((_flash_end - _flash_start) + _ram_data_len) + 0x3) & 0xfffffffc)
                0x04001a54                _heap_start = __heap_start
                0x04007000                _heap_end = __heap_end
                0x04008000                _ram_top = 0x4008000
                0x01001580                __app_ram_start = 0x1001580
                0x04000070                PROVIDE (_heap_location, _u32HeapStart)
                0x0008a338                _TSV_eOpenVector = _TSV_eOpen
                0x0008a3e3                _TSV_eStartVector = _TSV_eStart
                0x0008a4b2                _TSV_eStopVector = _TSV_eStop
                0x00083fb4                _pvAppApiGetMacHandle = _pvAppApiDefGetMacHandle
                0x0008409e                _u32AppApiInit = _u32AppApiDefInit
                0x0008415d                _vAppApiMlmeRequest = _vAppApiDefMlmeRequest
                0x0008412b                _vAppApiMcpsRequest = _vAppApiDefMcpsRequest
                0x0008418f                _eAppApiPlmeSet = _eAppApiDefPlmeSet
                0x000840f8                _eAppApiPlmeGet = _eAppApiDefPlmeGet
                0x00083fe1                _pvAppApiGetMacAddrLocation = _pvAppApiDefGetMacAddrLocation
                0x000841c2                _vAppApiSaveMacSettings = _vAppApiDefSaveMacSettings
                0x000842e7                _vAppApiRestoreMacSettings = _vAppApiDefRestoreMacSettings
OUTPUT(objs_JN5164/CardReader_CardReader_JN5164_0_1_4.elf elf32-ba)

.comment        0x00000000      0x6ae
 .comment       0x00000000       0x12 objs_JN5164/CardReader.o
 .comment       0x00000012       0x12 /cygdrive/c/TWESDK/Wks_ToCoNet/CardReader/../../Wks_libToCoNet/libToCoNet/lib/libToCoNet_JN5164.a(ToCoNet_main.o)
 .comment       0x00000024       0x12 /cygdrive/c/TWESDK/Wks_ToCoNet/CardReader/../../Wks_libToCoNet/libToCoNet/lib/libToCoNet_JN5164.a(ToCoNet_utils.o)
 .comment       0x00000036       0x12 /cygdrive/c/TWESDK/Wks_ToCoNet/CardReader/../../Wks_libToCoNet/libToCoNet/lib/libToCoNet_JN5164.a(ToCoNet_mod_Tx.o)
 .comment       0x00000048       0x12 /cygdrive/c/TWESDK/Wks_ToCoNet/CardReader/../../Wks_libToCoNet/libToCoNet/lib/libToCoNet_JN5164.a(ToCoNet_mod_TxRxQueue.o)
 .comment       0x0000005a       0x12 /cygdrive/c/TWESDK/Wks_ToCoNet/CardReader/../../Wks_libToCoNet/libToCoNet/lib/libToCoNet_JN5164.a(ToCoNet_mod_Nwk_Common.o)
 .comment       0x0000006c       0x12 /cygdrive/c/TWESDK/Wks_ToCoNet/CardReader/../../Wks_libToCoNet/libToCoNet/lib/libToCoNet_JN5164.a(ToCoNet_mod_Channel_Mgr.o)
 .comment       0x0000007e       0x12 /cygdrive/c/TWESDK/Wks_ToCoNet/CardReader/../../Wks_libToCoNet/libToCoNet/lib/libToCoNet_JN5164.a(Version.o)
 .comment       0x00000090       0x12 /cygdrive/c/TWESDK/Wks_ToCoNet/CardReader/../../Wks_libToCoNet/libToCoNet/lib/libToCoNet_JN5164.a(AppQueueApi_ToCoNet.o)
 .comment       0x000000a2       0x12 /cygdrive/c/TWESDK/Wks_ToCoNet/CardReader/../../Wks_libToCoNet/libToCoNet/lib/libToCoNet_JN5164.a(ToCoNet_event.o)
 .comment       0x000000b4       0x12 /cygdrive/c/TWESDK/Wks_ToCoNet/CardReader/../../Wks_libToCoNet/libToCoNet/lib/libToCoNetExt_JN5164.a(AppStart.o)
 .comment       0x000000c6       0x12 /cygdrive/c/TWESDK/Wks_ToCoNet/CardReader/../../Wks_libToCoNet/libToCoNet/lib/libToCoNetExt_JN5164.a(getMacAddr.o)
 .comment       0x000000d8       0x12 /cygdrive/c/TWESDK/Wks_ToCoNet/CardReader/../../Wks_libToCoNet/libToCoNet/lib/libToCoNetExt_JN5164.a(mac.o)
 .comment       0x000000ea       0x12 /cygdrive/c/TWESDK/Wks_ToCoNet/CardReader/../../Wks_libToCoNet/libToCoNet/lib/libToCoNetExt_JN5164.a(AES_CCM.o)
 .comment       0x000000fc       0x12 /cygdrive/c/TWESDK/Wks_ToCoNet/CardReader/../../Wks_libToCoNet/libToCoNet/lib/libToCoNetExt_JN5164.a(no_ack_handler.o)
 .comment       0x0000010e       0x12 /cygdrive/c/TWESDK/Wks_ToCoNet/CardReader/../../Wks_libToCoNet/libToCoNet/lib/libToCoNetExt_JN5164.a(Version.o)
 .comment       0x00000120       0x12 /cygdrive/c/TWESDK/Wks_ToCoNet/CardReader/../../Wks_libToCoNet/libToCoNet/lib/libToCoNetExt_JN5164.a(AHI_FlashIndexSector.o)
 .comment       0x00000132       0x12 /cygdrive/c/TWESDK/Wks_ToCoNet/CardReader/../../Wks_libToCoNet/libToCoNet/lib/libToCoNetUtils_JN5164.a(serial.o)
 .comment       0x00000144       0x12 /cygdrive/c/TWESDK/Wks_ToCoNet/CardReader/../../Wks_libToCoNet/libToCoNet/lib/libToCoNetUtils_JN5164.a(uart.o)
 .comment       0x00000156       0x12 /cygdrive/c/TWESDK/Wks_ToCoNet/CardReader/../../Wks_libToCoNet/libToCoNet/lib/libToCoNetUtils_JN5164.a(ByteQueue.o)
 .comment       0x00000168       0x12 /cygdrive/c/TWESDK/Wks_ToCoNet/CardReader/../../Wks_libToCoNet/libToCoNet/lib/libToCoNetUtils_JN5164.a(ccitt8.o)
 .comment       0x0000017a       0x12 /cygdrive/c/TWESDK/Wks_ToCoNet/CardReader/../../Wks_libToCoNet/libToCoNet/lib/libToCoNetUtils_JN5164.a(fprintf.o)
 .comment       0x0000018c       0x12 /cygdrive/c/TWESDK/Wks_ToCoNet/CardReader/../../Wks_libToCoNet/libToCoNet/lib/libToCoNetUtils_JN5164.a(sprintf.o)
 .comment       0x0000019e       0x12 /cygdrive/c/TWESDK/Wks_ToCoNet/CardReader/../../Wks_libToCoNet/libToCoNet/lib/libToCoNetUtils_JN5164.a(utils.o)
 .comment       0x000001b0       0x12 /cygdrive/c/TWESDK/Wks_ToCoNet/CardReader/../../Wks_libToCoNet/libToCoNet/lib/libToCoNetUtils_JN5164.a(ccm.o)
 .comment       0x000001c2       0x12 /cygdrive/c/TWESDK/Wks_ToCoNet/CardReader/../../Wks_libToCoNet/libToCoNet/lib/libToCoNetUtils_JN5164.a(Version.o)
 .comment       0x000001d4       0x12 /cygdrive/c/TWESDK/Wks_ToCoNet/CardReader/../../Wks_libToCoNet/libToCoNet/lib/libToCoNetUtils_JN5164.a(aescrypt.o)
 .comment       0x000001e6       0x12 /cygdrive/c/TWESDK/Wks_ToCoNet/CardReader/../../Wks_libToCoNet/libToCoNet/lib/libToCoNetUtils_JN5164.a(aeskey.o)
 .comment       0x000001f8       0x12 /cygdrive/c/TWESDK/Wks_ToCoNet/CardReader/../../Wks_libToCoNet/libToCoNet/lib/libToCoNetUtils_JN5164.a(aestab.o)
 .comment       0x0000020a       0x12 /cygdrive/c/TWESDK/516x/Components/Library/libAppApi_JN516x.a(AppApi.o)
 .comment       0x0000021c       0x12 /cygdrive/c/TWESDK/516x/Components/Library/libAppApi_JN516x.a(AppApiSleep.o)
 .comment       0x0000022e       0x12 /cygdrive/c/TWESDK/516x/Components/Library/libMac_JN516x.a(mac_main.o)
 .comment       0x00000240       0x12 /cygdrive/c/TWESDK/516x/Components/Library/libMac_JN516x.a(mac_mcps.o)
 .comment       0x00000252       0x12 /cygdrive/c/TWESDK/516x/Components/Library/libMac_JN516x.a(mac_mlme.o)
 .comment       0x00000264       0x12 /cygdrive/c/TWESDK/516x/Components/Library/libMac_JN516x.a(mac_pib.o)
 .comment       0x00000276       0x12 /cygdrive/c/TWESDK/516x/Components/Library/libMac_JN516x.a(mac_pib_mlme.o)
 .comment       0x00000288       0x12 /cygdrive/c/TWESDK/516x/Components/Library/libMac_JN516x.a(mac_pmic.o)
 .comment       0x0000029a       0x12 /cygdrive/c/TWESDK/516x/Components/Library/libMac_JN516x.a(mac_ind.o)
 .comment       0x000002ac       0x12 /cygdrive/c/TWESDK/516x/Components/Library/libMac_JN516x.a(mac_scan.o)
 .comment       0x000002be       0x12 /cygdrive/c/TWESDK/516x/Components/Library/libMac_JN516x.a(mac_lp.o)
 .comment       0x000002d0       0x12 /cygdrive/c/TWESDK/516x/Components/Library/libMac_JN516x.a(MCPS.o)
 .comment       0x000002e2       0x12 /cygdrive/c/TWESDK/516x/Components/Library/libMac_JN516x.a(phy_pib.o)
 .comment       0x000002f4       0x12 /cygdrive/c/TWESDK/516x/Components/Library/libMac_JN516x.a(TAM.o)
 .comment       0x00000306       0x12 /cygdrive/c/TWESDK/516x/Components/Library/libMac_JN516x.a(TAMCO.o)
 .comment       0x00000318       0x12 /cygdrive/c/TWESDK/516x/Components/Library/libMac_JN516x.a(TAMDE.o)
 .comment       0x0000032a       0x12 /cygdrive/c/TWESDK/516x/Components/Library/libMac_JN516x.a(TAM_MEM.o)
 .comment       0x0000033c       0x12 /cygdrive/c/TWESDK/516x/Components/Library/libMac_JN516x.a(TAM_MLME.o)
 .comment       0x0000034e       0x12 /cygdrive/c/TWESDK/516x/Components/Library/libMac_JN516x.a(TAM_TAH.o)
 .comment       0x00000360       0x12 /cygdrive/c/TWESDK/516x/Components/Library/libMac_JN516x.a(TAM_TAI.o)
 .comment       0x00000372       0x12 /cygdrive/c/TWESDK/516x/Components/Library/libMac_JN516x.a(TAM_TAT.o)
 .comment       0x00000384       0x12 /cygdrive/c/TWESDK/516x/Components/Library/libMac_JN516x.a(TAMcommon.o)
 .comment       0x00000396       0x12 /cygdrive/c/TWESDK/516x/Components/Library/libMac_JN516x.a(TAMevent.o)
 .comment       0x000003a8       0x12 /cygdrive/c/TWESDK/516x/Components/Library/libMac_JN516x.a(TAMqueue.o)
 .comment       0x000003ba       0x12 /cygdrive/c/TWESDK/516x/Components/Library/libMac_JN516x.a(TAMrxEnable.o)
 .comment       0x000003cc       0x12 /cygdrive/c/TWESDK/516x/Components/Library/libMac_JN516x.a(TAMsecurity.o)
 .comment       0x000003de       0x12 /cygdrive/c/TWESDK/516x/Components/Library/libMac_JN516x.a(TAMsideways.o)
 .comment       0x000003f0       0x12 /cygdrive/c/TWESDK/516x/Components/Library/libMac_JN516x.a(TAMtime.o)
 .comment       0x00000402       0x12 /cygdrive/c/TWESDK/516x/Components/Library/libMac_JN516x.a(TAM_AES.o)
 .comment       0x00000414       0x12 /cygdrive/c/TWESDK/516x/Components/Library/libMac_JN516x.a(mac_acl.o)
 .comment       0x00000426       0x12 /cygdrive/c/TWESDK/516x/Components/Library/libMac_JN516x.a(mac_misc.o)
 .comment       0x00000438       0x12 /cygdrive/c/TWESDK/516x/Components/Library/libXcv_JN516x.a(xcv_main.o)
 .comment       0x0000044a       0x12 /cygdrive/c/TWESDK/516x/Components/Library/libXcv_JN516x.a(xcv_access.o)
 .comment       0x0000045c       0x12 /cygdrive/c/TWESDK/516x/Components/Library/libXcv_JN516x.a(xcv_isr.o)
 .comment       0x0000046e       0x12 /cygdrive/c/TWESDK/516x/Components/Library/libAes_JN516x.a(AEScoprocessorCCM.o)
 .comment       0x00000480       0x12 /cygdrive/c/TWESDK/516x/Components/Library/libTimerServer_JN516x.a(tsv_main.o)
 .comment       0x00000492       0x12 /cygdrive/c/TWESDK/516x/Components/Library/libHardwareApi_JN516x.a(AHI_Analogue.o)
 .comment       0x000004a4       0x12 /cygdrive/c/TWESDK/516x/Components/Library/libHardwareApi_JN516x.a(AHI_BrownOut.o)
 .comment       0x000004b6       0x12 /cygdrive/c/TWESDK/516x/Components/Library/libHardwareApi_JN516x.a(AHI_Dio.o)
 .comment       0x000004c8       0x12 /cygdrive/c/TWESDK/516x/Components/Library/libHardwareApi_JN516x.a(AHI_Init.o)
 .comment       0x000004da       0x12 /cygdrive/c/TWESDK/516x/Components/Library/libHardwareApi_JN516x.a(AHI_Reset.o)
 .comment       0x000004ec       0x12 /cygdrive/c/TWESDK/516x/Components/Library/libHardwareApi_JN516x.a(AHI_Si.o)
 .comment       0x000004fe       0x12 /cygdrive/c/TWESDK/516x/Components/Library/libHardwareApi_JN516x.a(AHI_Spi.o)
 .comment       0x00000510       0x12 /cygdrive/c/TWESDK/516x/Components/Library/libHardwareApi_JN516x.a(AHI_System.o)
 .comment       0x00000522       0x12 /cygdrive/c/TWESDK/516x/Components/Library/libHardwareApi_JN516x.a(AHI_TickTimer.o)
 .comment       0x00000534       0x12 /cygdrive/c/TWESDK/516x/Components/Library/libHardwareApi_JN516x.a(AHI_Timer.o)
 .comment       0x00000546       0x12 /cygdrive/c/TWESDK/516x/Components/Library/libHardwareApi_JN516x.a(AHI_TimerInt.o)
 .comment       0x00000558       0x12 /cygdrive/c/TWESDK/516x/Components/Library/libHardwareApi_JN516x.a(AHI_Uart.o)
 .comment       0x0000056a       0x12 /cygdrive/c/TWESDK/516x/Components/Library/libHardwareApi_JN516x.a(AHI_WakeTimer.o)
 .comment       0x0000057c       0x12 /cygdrive/c/TWESDK/516x/Components/Library/libHardwareApi_JN516x.a(AHI_Flash.o)
 .comment       0x0000058e       0x12 /cygdrive/c/TWESDK/516x/Components/Library/libHardwareApi_JN516x.a(AHI_SpiSlave.o)
 .comment       0x000005a0       0x12 /cygdrive/c/TWESDK/516x/Components/Library/libHardwareApi_JN516x.a(AHI_Infrared.o)
 .comment       0x000005b2       0x12 /cygdrive/c/TWESDK/516x/Components/Library/libHardwareApi_JN516x.a(InternalFlashApi.o)
 .comment       0x000005c4       0x12 /cygdrive/c/TWESDK/516x/Components/Library/libMicroSpecific_JN516x.a(MicroInt.o)
 .comment       0x000005d6       0x12 /cygdrive/c/TWESDK/516x/Components/Library/libBoot_JN516x.a(Heap.o)
 .comment       0x000005e8       0x12 /cygdrive/c/TWESDK/516x/Components/Library/libMaths_JN516x.a(Maths.o)
 .comment       0x000005fa       0x12 /cygdrive/c/TWESDK/516x/Components/Library/libMaths_JN516x.a(Maths_muldi3.o)
 .comment       0x0000060c       0x12 /cygdrive/c/TWESDK/516x/Components/Library/libMaths_JN516x.a(Maths_divdi3.o)
 .comment       0x0000061e       0x12 /cygdrive/c/TWESDK/516x/Components/Library/libAppApi_JN516x.a(AppHousekeeping.o)
 .comment       0x00000630       0x12 /cygdrive/c/TWESDK/516x/Components/Library/libAES_CCM_SW_PATCH_JN516x.a(aes_ccmstar.o)
 .comment       0x00000642       0x12 /cygdrive/c/TWESDK/516x/Components/Library/libAes_JN516x.a(AEScoprocessorAPIinterrupts.o)
 .comment       0x00000654       0x12 /cygdrive/c/TWESDK/516x/Components/Library/libAes_JN516x.a(AEScoprocessorECB.o)
 .comment       0x00000666       0x12 /cygdrive/c/TWESDK/516x/Components/Library/libAes_JN516x.a(AEScoprocessorAPI.o)
 .comment       0x00000678       0x12 /cygdrive/c/TWESDK/Tools/ba-elf-ba2/bin/../lib/gcc/ba-elf/4.1.2/../../../../ba-elf/lib/ba2/libc.a(memcmp.o)
 .comment       0x0000068a       0x12 /cygdrive/c/TWESDK/Tools/ba-elf-ba2/bin/../lib/gcc/ba-elf/4.1.2/../../../../ba-elf/lib/ba2/libc.a(memcpy.o)
 .comment       0x0000069c       0x12 /cygdrive/c/TWESDK/Tools/ba-elf-ba2/bin/../lib/gcc/ba-elf/4.1.2/../../../../ba-elf/lib/ba2/libc.a(memset.o)

.stab           0x00000000      0x72c
 .stab          0x00000000      0x36c /cygdrive/c/TWESDK/Tools/ba-elf-ba2/bin/../lib/gcc/ba-elf/4.1.2/../../../../ba-elf/lib/ba2/libc.a(memcmp.o)
 .stab          0x0000036c      0x1e0 /cygdrive/c/TWESDK/Tools/ba-elf-ba2/bin/../lib/gcc/ba-elf/4.1.2/../../../../ba-elf/lib/ba2/libc.a(memcpy.o)
                                0x1ec (size before relaxing)
 .stab          0x0000054c      0x1e0 /cygdrive/c/TWESDK/Tools/ba-elf-ba2/bin/../lib/gcc/ba-elf/4.1.2/../../../../ba-elf/lib/ba2/libc.a(memset.o)
                                0x33c (size before relaxing)

.stabstr        0x00000000     0x1245
 .stabstr       0x00000000     0x1245 /cygdrive/c/TWESDK/Tools/ba-elf-ba2/bin/../lib/gcc/ba-elf/4.1.2/../../../../ba-elf/lib/ba2/libc.a(memcmp.o)
